(dp1
S'output'
p2
S"<type 'exceptions.NameError'> name 'form' is not defined"
p3
sS'layer'
p4
S'C:\\Users\\David\\Desktop\\web2py\\applications\\SIGESC\\views\\default/index.html'
p5
sS'code'
p6
S'response.write(\'<!--{% load staticfiles %}-->\\n<!DOCTYPE html>\\n<html>\\n<head>\\n\\t<meta charset="utf-8">\\n\\t<meta http-equiv="Content-Type" content="text/html; charset=UTF-8">\\n\\t<meta http-equiv="X-UA-Compatible" content="IE=edge">\\n\\t<meta name="viewport" content="width=device-width, initial-scale=1.0">\\n\\t<title>CFCG</title>\\n\\n\\t\\n\\t<!-- Compiled and minified CSS -->\\n\\t<!--<link rel="stylesheet" href="{% static \\\'css/bootstrap.min.css\\\' %} ">-->\\n\\t<link href="\', escape=False)\nresponse.write(URL(\'static\', \'css/bootstrap.min.css\', scheme=\'http\'))\nresponse.write(\'" rel="stylesheet" />\\n\\t<!-- Optional theme -->\\n\\t<!--<link rel="stylesheet" href="{% static \\\'css/bootstrap-theme.min.css\\\' %}">-->\\n\\t<link href="\', escape=False)\nresponse.write(URL(\'static\', \'css/bootstrap-theme.min.css\', scheme=\'http\'))\nresponse.write(\'" rel="stylesheet" />\\n\\t<!-- Latest compiled and minified JavaScript -->\\n\\t<!--<script src="{% static \\\'js/bootstrap.min.js\\\' %}"></script>-->\\t\\n\\t<link href="\', escape=False)\nresponse.write(URL(\'static\', \'css/bootstrap.min.js\', scheme=\'http\'))\nresponse.write(\'" rel="stylesheet"/>\\n\\n</head>\\n<body>\\n\\t<header>\\n\\t\\t<div align="center">\\n\\t\\t\\t\\t<img src="\', escape=False)\nresponse.write(URL(\'static\', \'img/top.png\'))\nresponse.write(\'" class="img-responsive" alt="top" width="73%">\\n\\t\\t\\t</a>\\n\\t\\t</div>\\n\\t</header>\\n\\t\\n\\t<div class="container" style="width: 75%;">\\n\\t\\t\', escape=False)\nresponse.write(\'\\r\\n<!DOCTYPE html>\\r\\n<!-- saved from url=(0039)http://getbootstrap.com/examples/theme/ -->\\r\\n<html lang="en">\\r\\n  <head>\\r\\n    <meta http-equiv="Content-Type" content="text/html; charset=UTF-8">\\r\\n    <meta charset="utf-8">\\r\\n    <meta http-equiv="X-UA-Compatible" content="IE=edge">\\r\\n    <meta name="viewport" content="width=device-width, initial-scale=1">\\r\\n    <meta name="description" content="">\\r\\n    <meta name="author" content="">\\r\\n    \\r\\n    <link rel="icon" href="http://getbootstrap.com/favicon.ico">\\r\\n    <link rel="stylesheet" href="{% static \\\'css/font-awesome.min.css\\\'%}">\\r\\n    <link href="\', escape=False)\nresponse.write(URL(\'static\', \'css/font-awesome.min.css\', scheme=\'http\'))\nresponse.write(\'" rel="stylesheet" type="text/css" />\\r\\n\\r\\n    <link href="\', escape=False)\nresponse.write(URL(\'static\', \'css/bootstrap.min.css\', scheme=\'http\'))\nresponse.write(\'" rel="stylesheet" type="text/css" />\\r\\n    <link href="\', escape=False)\nresponse.write(URL(\'static\', \'css/Pag_principal.css\', scheme=\'http\'))\nresponse.write(\'" rel="stylesheet" type="text/css" />\\r\\n    <link rel="icon" href="//getbootstrap.com/favicon.ico">\\r\\n    \\r\\n    <!-- Bootstrap core CSS -->\\r\\n    <!--<link href="{% static \\\'css/bootstrap.css\\\' %}" rel="stylesheet">-->\\r\\n    <link href="\', escape=False)\nresponse.write(URL(\'static\', \'css/bootstrap.css\', scheme=\'http\'))\nresponse.write(\'" rel="stylesheet" type="text/css" />\\r\\n    <!-- Bootstrap theme -->\\r\\n    <!--<link href="{% static \\\'css/bootstrap-theme.css\\\' %}" rel="stylesheet">-->\\r\\n\\t<link href="\', escape=False)\nresponse.write(URL(\'static\', \'css/bootstrap-theme.css\', scheme=\'http\'))\nresponse.write(\'" rel="stylesheet" type="text/css" />\\r\\n    <!--<script type="text/javascript" src="{% static \\\'js/jquery-1.11.2.js\\\'%}">\\r\\n    </script>-->\\r\\n    <link href="\', escape=False)\nresponse.write(URL(\'static\', \'js/jquery-1.11.2.js\'))\nresponse.write(\'" type="text/javascript" />\\r\\n    \\r\\n    <!-- Custom styles for this template -->\\r\\n    <link href="\', escape=False)\nresponse.write(URL(\'static\', \'css/theme.css\', scheme=\'http\'))\nresponse.write(\'" rel="stylesheet" />\\r\\n    <link href="\', escape=False)\nresponse.write(URL(\'static\', \'js/bootstrap.js\', scheme=\'http\'))\nresponse.write(\'" rel="stylesheet" />\\r\\n    \\r\\n    <link href="\', escape=False)\nresponse.write(URL(\'static\', \'fonts/glyphicons-halflings-regular.svg\', scheme=\'http\'))\nresponse.write(\'" rel="stylesheet"/>\\r\\n    <link href="\', escape=False)\nresponse.write(URL(\'static\', \'fonts/glyphicons-halflings-regular.eot\', scheme=\'http\'))\nresponse.write(\'" rel="stylesheet" />\\r\\n\\r\\n    <link href="\', escape=False)\nresponse.write(URL(\'static\', \'fonts/glyphicons-halflings-regular.ttf\', scheme=\'http\'))\nresponse.write(\'" rel="stylesheet" />\\r\\n    <link href="\', escape=False)\nresponse.write(URL(\'static\', \'fonts/glyphicons-halflings-regular.woff\', scheme=\'http\'))\nresponse.write(\'" rel="stylesheet" />\\r\\n    <link href="\', escape=False)\nresponse.write(URL(\'static\', \'fonts/glyphicons-halflings-regular.woff2\', scheme=\'http\'))\nresponse.write(\'" rel="stylesheet" />\\r\\n    \\r\\n  </head>\\r\\n  \\r\\n  <body role="document">\\r\\n    <!-- Fixed navbar -->\\r\\n    \\r\\n    <nav class="navbar navbar-default">\\r\\n      <div class="container">\\r\\n        <div class="navbar-header">\\r\\n          <button type="button" class="navbar-toggle collapsed" data-toggle="collapse" data-target="#navbar" aria-expanded="false" aria-controls="navbar">\\r\\n            <span class="sr-only">\\r\\n              Toggle navigation\\r\\n            </span>\\r\\n            <span class="icon-bar">\\r\\n            </span>\\r\\n            <span class="icon-bar">\\r\\n            </span>\\r\\n            <span class="icon-bar">\\r\\n            </span>\\r\\n          </button>\\r\\n\\r\\n          <img class="home" src="\', escape=False)\nresponse.write(URL(\'static\', \'img/home.png\'))\nresponse.write(\'" />\\r\\n        </div>\\r\\n        <div id="navbar" class="navbar-collapse collapse">\\r\\n          <ul class="nav navbar-nav">\\r\\n            <li>\\r\\n              <a href="http://getbootstrap.com/examples/theme/#">\\r\\n                \\xc2\\xbfQui&eacute;nes somos?\\r\\n              </a>\\r\\n            </li>\\r\\n            <li>\\r\\n              <a href="http://getbootstrap.com/examples/theme/#about">\\r\\n                Formatos SC\\r\\n              </a>\\r\\n            </li>\\r\\n            <li>\\r\\n              <a href="http://getbootstrap.com/examples/theme/#contact">\\r\\n                Reglamentos SC\\r\\n              </a>\\r\\n            </li>\\r\\n            <li>\\r\\n              <a href="http://getbootstrap.com/examples/theme/#contact">\\r\\n                Decanato de extensi\\xc3\\xb3n\\r\\n              </a>\\r\\n            </li>\\r\\n\\t\\t\\t<li>\\r\\n              <a href="http://getbootstrap.com/examples/theme/#contact">\\r\\n                Proyectos\\r\\n              </a>\\r\\n            </li>\\r\\n            \\r\\n          </ul>\\r\\n        </div>\\r\\n        <!--/.nav-collapse -->\\r\\n      </div>\\r\\n    </nav>\\r\\n    \\r\\n    <!-- Contenido -->\\r\\n    <div class="micontainer">\\r\\n        \', escape=False)\nresponse.write(form)\nresponse.write(\'\\r\\n      <!--<form>\\r\\n        <br>\\r\\n        <b>\\r\\n          <h class="acces" style="color:#4682B4">\\r\\n            Acceso:\\r\\n          </h>\\r\\n          <br>\\r\\n        </b>\\r\\n        <br>\\r\\n        <b>\\r\\n          <h class="log" style="color:#A9A9A9">\\r\\n            USBID:\\r\\n          </h>\\r\\n        </b>\\r\\n        <input type="text"  name="username">\\r\\n        <br>\\r\\n        <h class="log" style="color:#A9A9A9">\\r\\n          Contrase&ntilde;a:\\r\\n        </h>\\r\\n        <input type="password"  name="password">\\r\\n        \\r\\n        <BR>\\r\\n        <a href="\', escape=False)\nresponse.write(URL(\'estudiantes\'))\nresponse.write(\'">\\r\\n          <img class="ini" class="img-responsive" src="\', escape=False)\nresponse.write(URL(\'static\', \'img/log.png\'))\nresponse.write(\'" width="120" height="25"/>\\r\\n        </a>\\r\\n        <h class="clean" style="color:#808080">\\r\\n          | Limpiar\\r\\n        </h>\\r\\n        \\r\\n      </form>\\r\\n\\t</div>\\r\\n    <div class="row">\\r\\n      <div class="col-md-3"  style="color:#4682B4">\\r\\n        <b>\\r\\n          Noticias destacadas\\r\\n        </b>\\r\\n        <br>\\r\\n        <br>\\r\\n        <p class="informacion" align="left" style="color:#1E90FF">\\r\\n          Inscripciones abiertas\\r\\n          <br>\\r\\n          para el SC...\\r\\n        </p>\\r\\n        <p class="detalles" align="left" style="color:#808080">\\r\\n          Revisa la lista de proyectos\\r\\n          <br>\\r\\n          y registrate ahora!\\r\\n        </p>\\r\\n        <button type="button" class="btn btn-lg btn-default">\\r\\n          leer mas\\r\\n        </button>\\r\\n      </div>\\r\\n      \\r\\n      <div class="col-md-4">\\r\\n\\r\\n        <img class="img-responsive" src="\', escape=False)\nresponse.write(URL(\'static\', \'img/estudiante.png\'))\nresponse.write(\'" width="350" hspace="25"/>\\r\\n      </div>-->\\r\\n      \\r\\n      \\r\\n    </div>\\r\\n    \\r\\n    <div class="container-princ">\\r\\n      \\r\\n      <div class="row">\\r\\n        <div class="col-sm-4">\\r\\n          <div class="list-group">\\r\\n            <b>\\r\\n              <a href="http://getbootstrap.com/examples/theme/#" class="list-group-item active">\\r\\n                Proyectos\\r\\n              </a>\\r\\n            </b>\\r\\n            <a href="#" class="list-group-item">\\r\\n              \\r\\n              <span class="glyphicon glyphicon-music">\\r\\n              </span>\\r\\n              Ambientales\\r\\n              <span class="badge">\\r\\n                10\\r\\n              </span>\\r\\n              \\r\\n              <a href="#" class="list-group-item">\\r\\n                <span class="glyphicon glyphicon-music">\\r\\n                </span>\\r\\n                Apoyo tecnol&oacute;gico\\r\\n                <span class="badge">\\r\\n                  15\\r\\n                </span>\\r\\n                \\r\\n                <a href="#" class="list-group-item">\\r\\n                  <span class="glyphicon glyphicon-music">\\r\\n                  </span>\\r\\n                  Cultura \\r\\n                  <span class="badge">\\r\\n                    15\\r\\n                  </span>\\r\\n                  \\r\\n                  <a href="#" class="list-group-item">\\r\\n                    <span class="glyphicon glyphicon-music">\\r\\n                    </span>\\r\\n                    Desarrollo sustentable \\r\\n                    <span class="badge">\\r\\n                      18\\r\\n                    </span>\\r\\n                    \\r\\n                    <a href="#" class="list-group-item">\\r\\n                      <span class="glyphicon glyphicon-music">\\r\\n                      </span>\\r\\n                      Educativos \\r\\n                      <span class="badge">\\r\\n                        13\\r\\n                      </span>\\r\\n                      \\r\\n                      <a href="#" class="list-group-item">\\r\\n                        <span class="glyphicon glyphicon-music">\\r\\n                        </span>\\r\\n                        Infraestrusctura \\r\\n                        <span class="badge">\\r\\n                          16\\r\\n                        </span>\\r\\n                        \\r\\n                        <a href="#" class="list-group-item">\\r\\n                          <span class="glyphicon glyphicon-music">\\r\\n                          </span>\\r\\n                          Prevenci&oacute;n de emergencias \\r\\n                          <span class="badge">\\r\\n                            19\\r\\n                          </span>\\r\\n                          \\r\\n                          <a href="#" class="list-group-item">\\r\\n                            <span class="glyphicon glyphicon-music">\\r\\n                            </span>\\r\\n                            Salud \\r\\n                            <span class="badge">\\r\\n                              16\\r\\n                            </span>\\r\\n                            \\r\\n                            <a href="#" class="list-group-item">\\r\\n                              <span class="glyphicon glyphicon-music">\\r\\n                              </span>\\r\\n                              Seguridad industrial \\r\\n                              <span class="badge">\\r\\n                                17\\r\\n                              </span>\\r\\n                            </a>\\r\\n                          </div>\\r\\n                        </div>\\r\\n                        <!-- /.col-sm-4 -->\\r\\n                        \\r\\n                        \\r\\n                        <br>\\r\\n                        <div class="col-sm-4">\\r\\n                          <h4>\\r\\n                            <b>\\r\\n                              Calidad del aire y su importancia para la vida\\r\\n                            </b>\\r\\n                          </h2>\\r\\n\\r\\n                          <img class="img-responsive" src="\', escape=False)\nresponse.write(URL(\'static\', \'img/arbol.png\'))\nresponse.write(\'"/>\\r\\n                          <img class="img-responsive" style="margin:auto" src="\', escape=False)\nresponse.write(URL(\'static\', \'img/rollbar.png\'))\nresponse.write(\'" />\\r\\n                          \\r\\n                          \\r\\n                        </div>\\r\\n                        <div class="col-sm-4">\\r\\n                        \\r\\n                          \\r\\n                          <p class="infproy" >\\r\\n                            \\r\\n                            Este proyecto consiste en realizar \\r\\n                            campa\\xc3\\xb1as de concientizaci\\xc3\\xb3n\\r\\n                            sobre la importancia de la calidad \\r\\n                            del aire y la responsabilidad de cada \\r\\n                            uno de nosotros en la contaminaci\\xc3\\xb3n\\r\\n                            <br>\\r\\n                            Tutor: Yudith Cardinale.\\r\\n                            <br>\\r\\n                          </p>\\r\\n                          <div class="link-proy" style="color:#4682B4" >\\r\\n                            \\r\\n                            <b>\\r\\n                              Ver este proyecto >>\\r\\n                            </b>\\r\\n                          </div>\\r\\n                          \\r\\n                        </div>\\r\\n                        \\r\\n                    </div>\\r\\n                    \\r\\n                  </div>\\r\\n                  \\r\\n                  \\r\\n                  \\r\\n                </html>\\r\\n                \\r\\n                \', escape=False)\nresponse.write(\'\\n\\t</div>\\n\\t\\n\\t\\n<footer style="margin-top: 5%">\\n<div align="center">\\n\\t<div>\\n\\t\\t<div>\\n\\t\\t\\t<div>\\n\\t\\t\\t\\t<table align="center" border="0" cellpadding="1" cellspacing="1"><tbody><tr><td valign="bottom" width="95">\\n\\t\\t\\t\\t<a href="http://www.usb.ve"><img alt="" src="http://cfgc.dex.usb.ve/sites/default/files/cebolla_70_45.jpg"></a></td>\\n\\t\\t\\t\\t<td valign="bottom">\\n\\t\\t\\t\\t<a href="http://www.usb.ve/estudios/calendario.html" target="_blank">Calendario </a>|<a href="http://www.usb.ve/telefonico/telefonico.php?tipo=personal" target="_blank"> Directorio USB </a>|<a href="https://asignaturas.usb.ve/" target="_blank"> Aula Virtual USB</a> |<a href="https://webmail.usb.ve/" target="_blank"> Webmail</a>|<a href="http://www.usb.ve/buscador.php" target="_blank"> Buscador</a> |<br>\\n\\t\\t\\t\\tSartenejas, Baruta, Edo. Miranda - Apartado 89000 - Cable Unibolivar - Caracas Venezuela. Telefono +58 0212-9063111<br>\\n\\t\\t\\t\\tDisenada y desarrollada por la Direccion de Servicios Multimedia <a href="mailto:webmaster@usb.ve">webmaster@usb.ve</a></td>\\n\\t\\t\\t\\t</tr></tbody></table><p>\\n\\t\\t\\t\\t&nbsp;</p>\\n\\t\\t\\t</div>\\n\\t\\t</div>\\n\\t</div>\\n</div>\\n</footer>\\n</body>\\n\', escape=False)'
p7
sS'snapshot'
p8
(dp9
S'exception'
p10
(dp11
S'__hash__'
p12
S"<method-wrapper '__hash__' of exceptions.NameError object>"
p13
sS'__setattr__'
p14
S"<method-wrapper '__setattr__' of exceptions.NameError object>"
p15
sS'__reduce_ex__'
p16
S'<built-in method __reduce_ex__ of exceptions.NameError object>'
p17
sS'__getslice__'
p18
S"<method-wrapper '__getslice__' of exceptions.NameError object>"
p19
sS'__getitem__'
p20
S"<method-wrapper '__getitem__' of exceptions.NameError object>"
p21
sS'__setstate__'
p22
S'<built-in method __setstate__ of exceptions.NameError object>'
p23
sS'__reduce__'
p24
S'<built-in method __reduce__ of exceptions.NameError object>'
p25
sS'__str__'
p26
S"<method-wrapper '__str__' of exceptions.NameError object>"
p27
sS'__format__'
p28
S'<built-in method __format__ of exceptions.NameError object>'
p29
sS'__getattribute__'
p30
S"<method-wrapper '__getattribute__' of exceptions.NameError object>"
p31
sS'__class__'
p32
S"<type 'exceptions.NameError'>"
p33
sS'__unicode__'
p34
S'<built-in method __unicode__ of exceptions.NameError object>'
p35
sS'__delattr__'
p36
S"<method-wrapper '__delattr__' of exceptions.NameError object>"
p37
sS'__subclasshook__'
p38
S'<built-in method __subclasshook__ of type object>'
p39
sS'__repr__'
p40
S"<method-wrapper '__repr__' of exceptions.NameError object>"
p41
sS'args'
p42
S'("name \'form\' is not defined",)'
p43
sS'__dict__'
p44
S'{}'
p45
sS'__sizeof__'
p46
S'<built-in method __sizeof__ of exceptions.NameError object>'
p47
sS'__doc__'
p48
S"'Name not found globally.'"
p49
sS'__init__'
p50
S"<method-wrapper '__init__' of exceptions.NameError object>"
p51
sS'__new__'
p52
S'<built-in method __new__ of type object>'
p53
ssS'evalue'
p54
S"name 'form' is not defined"
p55
sS'request'
p56
cgluon.html
XML_unpickle
p57
(S's\xecl\x00\x00<div><table><tr><td style="font-weight:bold;vertical-align:top;">ajax</td><td style="vertical-align:top;">:</td><td><div>False</div></td></tr><tr><td style="font-weight:bold;vertical-align:top;">application</td><td style="vertical-align:top;">:</td><td><div>SIGESC</div></td></tr><tr><td style="font-weight:bold;vertical-align:top;">args</td><td style="vertical-align:top;">:</td><td><div><table><tr><td><div>login</div></td></tr></table></div></td></tr><tr><td style="font-weight:bold;vertical-align:top;">cid</td><td style="vertical-align:top;">:</td><td><div>None</div></td></tr><tr><td style="font-weight:bold;vertical-align:top;">client</td><td style="vertical-align:top;">:</td><td><div>127.0.0.1</div></td></tr><tr><td style="font-weight:bold;vertical-align:top;">controller</td><td style="vertical-align:top;">:</td><td><div>default</div></td></tr><tr><td style="font-weight:bold;vertical-align:top;">cookies</td><td style="vertical-align:top;">:</td><td><div><table><tr><td style="font-weight:bold;vertical-align:top;">adminLanguage</td><td style="vertical-align:top;">:</td><td><div>en-us<table><tr><td style="font-weight:bold;vertical-align:top;">comment</td><td style="vertical-align:top;">:</td><td><div></div></td></tr><tr><td style="font-weight:bold;vertical-align:top;">domain</td><td style="vertical-align:top;">:</td><td><div></div></td></tr><tr><td style="font-weight:bold;vertical-align:top;">expires</td><td style="vertical-align:top;">:</td><td><div></div></td></tr><tr><td style="font-weight:bold;vertical-align:top;">httponly</td><td style="vertical-align:top;">:</td><td><div></div></td></tr><tr><td style="font-weight:bold;vertical-align:top;">max-age</td><td style="vertical-align:top;">:</td><td><div></div></td></tr><tr><td style="font-weight:bold;vertical-align:top;">path</td><td style="vertical-align:top;">:</td><td><div></div></td></tr><tr><td style="font-weight:bold;vertical-align:top;">secure</td><td style="vertical-align:top;">:</td><td><div></div></td></tr><tr><td style="font-weight:bold;vertical-align:top;">version</td><td style="vertical-align:top;">:</td><td><div></div></td></tr></table></div></td></tr><tr><td style="font-weight:bold;vertical-align:top;">csrftoken</td><td style="vertical-align:top;">:</td><td><div>cqhaJYe0TjAk5U64kM8umcOI3Uk9ohEQ<table><tr><td style="font-weight:bold;vertical-align:top;">comment</td><td style="vertical-align:top;">:</td><td><div></div></td></tr><tr><td style="font-weight:bold;vertical-align:top;">domain</td><td style="vertical-align:top;">:</td><td><div></div></td></tr><tr><td style="font-weight:bold;vertical-align:top;">expires</td><td style="vertical-align:top;">:</td><td><div></div></td></tr><tr><td style="font-weight:bold;vertical-align:top;">httponly</td><td style="vertical-align:top;">:</td><td><div></div></td></tr><tr><td style="font-weight:bold;vertical-align:top;">max-age</td><td style="vertical-align:top;">:</td><td><div></div></td></tr><tr><td style="font-weight:bold;vertical-align:top;">path</td><td style="vertical-align:top;">:</td><td><div></div></td></tr><tr><td style="font-weight:bold;vertical-align:top;">secure</td><td style="vertical-align:top;">:</td><td><div></div></td></tr><tr><td style="font-weight:bold;vertical-align:top;">version</td><td style="vertical-align:top;">:</td><td><div></div></td></tr></table></div></td></tr><tr><td style="font-weight:bold;vertical-align:top;">session_id_admin</td><td style="vertical-align:top;">:</td><td><div>127.0.0.1-0c96bbc5-ca2a-45d9-b6ef-aa62c1577714<table><tr><td style="font-weight:bold;vertical-align:top;">comment</td><td style="vertical-align:top;">:</td><td><div></div></td></tr><tr><td style="font-weight:bold;vertical-align:top;">domain</td><td style="vertical-align:top;">:</td><td><div></div></td></tr><tr><td style="font-weight:bold;vertical-align:top;">expires</td><td style="vertical-align:top;">:</td><td><div></div></td></tr><tr><td style="font-weight:bold;vertical-align:top;">httponly</td><td style="vertical-align:top;">:</td><td><div></div></td></tr><tr><td style="font-weight:bold;vertical-align:top;">max-age</td><td style="vertical-align:top;">:</td><td><div></div></td></tr><tr><td style="font-weight:bold;vertical-align:top;">path</td><td style="vertical-align:top;">:</td><td><div></div></td></tr><tr><td style="font-weight:bold;vertical-align:top;">secure</td><td style="vertical-align:top;">:</td><td><div></div></td></tr><tr><td style="font-weight:bold;vertical-align:top;">version</td><td style="vertical-align:top;">:</td><td><div></div></td></tr></table></div></td></tr><tr><td style="font-weight:bold;vertical-align:top;">session_id_sigesc</td><td style="vertical-align:top;">:</td><td><div>127.0.0.1-c3dc1c02-6853-4273-bc7d-c19dc0ab3689<table><tr><td style="font-weight:bold;vertical-align:top;">comment</td><td style="vertical-align:top;">:</td><td><div></div></td></tr><tr><td style="font-weight:bold;vertical-align:top;">domain</td><td style="vertical-align:top;">:</td><td><div></div></td></tr><tr><td style="font-weight:bold;vertical-align:top;">expires</td><td style="vertical-align:top;">:</td><td><div></div></td></tr><tr><td style="font-weight:bold;vertical-align:top;">httponly</td><td style="vertical-align:top;">:</td><td><div></div></td></tr><tr><td style="font-weight:bold;vertical-align:top;">max-age</td><td style="vertical-align:top;">:</td><td><div></div></td></tr><tr><td style="font-weight:bold;vertical-align:top;">path</td><td style="vertical-align:top;">:</td><td><div></div></td></tr><tr><td style="font-weight:bold;vertical-align:top;">secure</td><td style="vertical-align:top;">:</td><td><div></div></td></tr><tr><td style="font-weight:bold;vertical-align:top;">version</td><td style="vertical-align:top;">:</td><td><div></div></td></tr></table></div></td></tr><tr><td style="font-weight:bold;vertical-align:top;">session_id_welcome</td><td style="vertical-align:top;">:</td><td><div>127.0.0.1-fcb4d470-a612-4551-9dc2-5c3cd27ee74f<table><tr><td style="font-weight:bold;vertical-align:top;">comment</td><td style="vertical-align:top;">:</td><td><div></div></td></tr><tr><td style="font-weight:bold;vertical-align:top;">domain</td><td style="vertical-align:top;">:</td><td><div></div></td></tr><tr><td style="font-weight:bold;vertical-align:top;">expires</td><td style="vertical-align:top;">:</td><td><div></div></td></tr><tr><td style="font-weight:bold;vertical-align:top;">httponly</td><td style="vertical-align:top;">:</td><td><div></div></td></tr><tr><td style="font-weight:bold;vertical-align:top;">max-age</td><td style="vertical-align:top;">:</td><td><div></div></td></tr><tr><td style="font-weight:bold;vertical-align:top;">path</td><td style="vertical-align:top;">:</td><td><div></div></td></tr><tr><td style="font-weight:bold;vertical-align:top;">secure</td><td style="vertical-align:top;">:</td><td><div></div></td></tr><tr><td style="font-weight:bold;vertical-align:top;">version</td><td style="vertical-align:top;">:</td><td><div></div></td></tr></table></div></td></tr><tr><td style="font-weight:bold;vertical-align:top;">sessionid</td><td style="vertical-align:top;">:</td><td><div>5o8z376ri9t0osg3ye30597or78ohnsj<table><tr><td style="font-weight:bold;vertical-align:top;">comment</td><td style="vertical-align:top;">:</td><td><div></div></td></tr><tr><td style="font-weight:bold;vertical-align:top;">domain</td><td style="vertical-align:top;">:</td><td><div></div></td></tr><tr><td style="font-weight:bold;vertical-align:top;">expires</td><td style="vertical-align:top;">:</td><td><div></div></td></tr><tr><td style="font-weight:bold;vertical-align:top;">httponly</td><td style="vertical-align:top;">:</td><td><div></div></td></tr><tr><td style="font-weight:bold;vertical-align:top;">max-age</td><td style="vertical-align:top;">:</td><td><div></div></td></tr><tr><td style="font-weight:bold;vertical-align:top;">path</td><td style="vertical-align:top;">:</td><td><div></div></td></tr><tr><td style="font-weight:bold;vertical-align:top;">secure</td><td style="vertical-align:top;">:</td><td><div></div></td></tr><tr><td style="font-weight:bold;vertical-align:top;">version</td><td style="vertical-align:top;">:</td><td><div></div></td></tr></table></div></td></tr></table></div></td></tr><tr><td style="font-weight:bold;vertical-align:top;">env</td><td style="vertical-align:top;">:</td><td><div><table><tr><td style="font-weight:bold;vertical-align:top;">HTTP_ACCEPT</td><td style="vertical-align:top;">:</td><td><div>text/html,application/xhtml+xml,application/xml;q=0.9,image/webp,*/*;q=0.8</div></td></tr><tr><td style="font-weight:bold;vertical-align:top;">HTTP_ACCEPT_ENCODING</td><td style="vertical-align:top;">:</td><td><div>gzip, deflate, sdch</div></td></tr><tr><td style="font-weight:bold;vertical-align:top;">HTTP_ACCEPT_LANGUAGE</td><td style="vertical-align:top;">:</td><td><div>es-ES,es;q=0.8,en;q=0.6</div></td></tr><tr><td style="font-weight:bold;vertical-align:top;">HTTP_CONNECTION</td><td style="vertical-align:top;">:</td><td><div>keep-alive</div></td></tr><tr><td style="font-weight:bold;vertical-align:top;">HTTP_COOKIE</td><td style="vertical-align:top;">:</td><td><div>adminLanguage=en-us; sessionid=5o8z376ri9t0osg3ye30597or78ohnsj; csrftoken=cqhaJYe0TjAk5U64kM8umcOI3Uk9ohEQ; session_id_welcome=127.0.0.1-fcb4d470-a612-4551-9dc2-5c3cd27ee74f; session_id_sigesc=127.0.0.1-c3dc1c02-6853-4273-bc7d-c19dc0ab3689; session_id_admin=127.0.0.1-0c96bbc5-ca2a-45d9-b6ef-aa62c1577714</div></td></tr><tr><td style="font-weight:bold;vertical-align:top;">HTTP_HOST</td><td style="vertical-align:top;">:</td><td><div>127.0.0.1:8000</div></td></tr><tr><td style="font-weight:bold;vertical-align:top;">HTTP_REFERER</td><td style="vertical-align:top;">:</td><td><div>http://127.0.0.1:8000/admin/default/edit/SIGESC/views/default/index.html?id=views__default__index__html</div></td></tr><tr><td style="font-weight:bold;vertical-align:top;">HTTP_USER_AGENT</td><td style="vertical-align:top;">:</td><td><div>Mozilla/5.0 (Windows NT 6.3; WOW64) AppleWebKit/537.36 (KHTML, like Gecko) Chrome/40.0.2214.111 Safari/537.36</div></td></tr><tr><td style="font-weight:bold;vertical-align:top;">PATH_INFO</td><td style="vertical-align:top;">:</td><td><div>/SIGESC/default/index/login</div></td></tr><tr><td style="font-weight:bold;vertical-align:top;">QUERY_STRING</td><td style="vertical-align:top;">:</td><td><div></div></td></tr><tr><td style="font-weight:bold;vertical-align:top;">REMOTE_ADDR</td><td style="vertical-align:top;">:</td><td><div>127.0.0.1</div></td></tr><tr><td style="font-weight:bold;vertical-align:top;">REMOTE_PORT</td><td style="vertical-align:top;">:</td><td><div>58296</div></td></tr><tr><td style="font-weight:bold;vertical-align:top;">REQUEST_METHOD</td><td style="vertical-align:top;">:</td><td><div>GET</div></td></tr><tr><td style="font-weight:bold;vertical-align:top;">SCRIPT_NAME</td><td style="vertical-align:top;">:</td><td><div></div></td></tr><tr><td style="font-weight:bold;vertical-align:top;">SERVER_NAME</td><td style="vertical-align:top;">:</td><td><div>David</div></td></tr><tr><td style="font-weight:bold;vertical-align:top;">SERVER_PORT</td><td style="vertical-align:top;">:</td><td><div>8000</div></td></tr><tr><td style="font-weight:bold;vertical-align:top;">SERVER_PROTOCOL</td><td style="vertical-align:top;">:</td><td><div>HTTP/1.1</div></td></tr><tr><td style="font-weight:bold;vertical-align:top;">SERVER_SOFTWARE</td><td style="vertical-align:top;">:</td><td><div>Rocket 1.2.6</div></td></tr><tr><td style="font-weight:bold;vertical-align:top;">app_folders</td><td style="vertical-align:top;">:</td><td><div>set([&#x27;C:\\\\Users\\\\David\\\\Desktop\\\\web2py\\\\applications\\\\admin\\\\&#x27;, &#x27;C:\\\\Users\\\\David\\\\Desktop\\\\web2py\\\\applications\\\\welcome\\\\&#x27;, &#x27;C:\\\\Users\\\\David\\\\Desktop\\\\web2py\\\\applications\\\\SIGESC\\\\&#x27;])</div></td></tr><tr><td style="font-weight:bold;vertical-align:top;">applications_parent</td><td style="vertical-align:top;">:</td><td><div>C:\\Users\\David\\Desktop\\web2py</div></td></tr><tr><td style="font-weight:bold;vertical-align:top;">cmd_args</td><td style="vertical-align:top;">:</td><td><div><table></table></div></td></tr><tr><td style="font-weight:bold;vertical-align:top;">cmd_options</td><td style="vertical-align:top;">:</td><td><div>&lt;Values at 0x2e7ad28: {&#x27;verbose&#x27;: False, &#x27;ip&#x27;: &#x27;127.0.0.1&#x27;, &#x27;debuglevel&#x27;: 30, &#x27;with_scheduler&#x27;: False, &#x27;ips&#x27;: [&#x27;127.0.0.1&#x27;, &#x27;::1&#x27;], &#x27;shutdown_timeout&#x27;: 5, &#x27;taskbar&#x27;: False, &#x27;with_coverage&#x27;: False, &#x27;scheduler_groups&#x27;: None, &#x27;port&#x27;: 8000, &#x27;maxthreads&#x27;: None, &#x27;softcron&#x27;: False, &#x27;server_name&#x27;: &#x27;David&#x27;, &#x27;bpython&#x27;: False, &#x27;nogui&#x27;: False, &#x27;pid_filename&#x27;: &#x27;httpserver.pid&#x27;, &#x27;extcron&#x27;: False, &#x27;runcron&#x27;: False, &#x27;run_system_tests&#x27;: False, &#x27;test&#x27;: None, &#x27;folder&#x27;: &#x27;C:\\\\Users\\\\David\\\\Desktop\\\\web2py&#x27;, &#x27;config&#x27;: &#x27;&#x27;, &#x27;minthreads&#x27;: None, &#x27;shell&#x27;: None, &#x27;run&#x27;: &#x27;&#x27;, &#x27;log_filename&#x27;: &#x27;httpserver.log&#x27;, &#x27;profiler_dir&#x27;: None, &#x27;args&#x27;: [&#x27;&#x27;], &#x27;socket_timeout&#x27;: 5, &#x27;ssl_ca_certificate&#x27;: None, &#x27;scheduler&#x27;: None, &#x27;interfaces&#x27;: None, &#x27;ssl_private_key&#x27;: &#x27;&#x27;, &#x27;gae&#x27;: None, &#x27;password&#x27;: &#x27;&lt;ask&gt;&#x27;, &#x27;request_queue_size&#x27;: 5, &#x27;ssl_certificate&#x27;: &#x27;&#x27;, &#x27;cronjob&#x27;: False, &#x27;numthreads&#x27;: None, &#x27;quiet&#x27;: False, &#x27;import_models&#x27;: False, &#x27;timeout&#x27;: 10, &#x27;plain&#x27;: False, &#x27;nobanner&#x27;: False}&gt;</div></td></tr><tr><td style="font-weight:bold;vertical-align:top;">db_sessions</td><td style="vertical-align:top;">:</td><td><div>set([])</div></td></tr><tr><td style="font-weight:bold;vertical-align:top;">debugging</td><td style="vertical-align:top;">:</td><td><div>True</div></td></tr><tr><td style="font-weight:bold;vertical-align:top;">gluon_parent</td><td style="vertical-align:top;">:</td><td><div>C:\\Users\\David\\Desktop\\web2py</div></td></tr><tr><td style="font-weight:bold;vertical-align:top;">http_accept</td><td style="vertical-align:top;">:</td><td><div>text/html,application/xhtml+xml,application/xml;q=0.9,image/webp,*/*;q=0.8</div></td></tr><tr><td style="font-weight:bold;vertical-align:top;">http_accept_encoding</td><td style="vertical-align:top;">:</td><td><div>gzip, deflate, sdch</div></td></tr><tr><td style="font-weight:bold;vertical-align:top;">http_accept_language</td><td style="vertical-align:top;">:</td><td><div>es-ES,es;q=0.8,en;q=0.6</div></td></tr><tr><td style="font-weight:bold;vertical-align:top;">http_connection</td><td style="vertical-align:top;">:</td><td><div>keep-alive</div></td></tr><tr><td style="font-weight:bold;vertical-align:top;">http_cookie</td><td style="vertical-align:top;">:</td><td><div>adminLanguage=en-us; sessionid=5o8z376ri9t0osg3ye30597or78ohnsj; csrftoken=cqhaJYe0TjAk5U64kM8umcOI3Uk9ohEQ; session_id_welcome=127.0.0.1-fcb4d470-a612-4551-9dc2-5c3cd27ee74f; session_id_sigesc=127.0.0.1-c3dc1c02-6853-4273-bc7d-c19dc0ab3689; session_id_admin=127.0.0.1-0c96bbc5-ca2a-45d9-b6ef-aa62c1577714</div></td></tr><tr><td style="font-weight:bold;vertical-align:top;">http_host</td><td style="vertical-align:top;">:</td><td><div>127.0.0.1:8000</div></td></tr><tr><td style="font-weight:bold;vertical-align:top;">http_referer</td><td style="vertical-align:top;">:</td><td><div>http://127.0.0.1:8000/admin/default/edit/SIGESC/views/default/index.html?id=views__default__index__html</div></td></tr><tr><td style="font-weight:bold;vertical-align:top;">http_user_agent</td><td style="vertical-align:top;">:</td><td><div>Mozilla/5.0 (Windows NT 6.3; WOW64) AppleWebKit/537.36 (KHTML, like Gecko) Chrome/40.0.2214.111 Safari/537.36</div></td></tr><tr><td style="font-weight:bold;vertical-align:top;">is_jython</td><td style="vertical-align:top;">:</td><td><div>False</div></td></tr><tr><td style="font-weight:bold;vertical-align:top;">is_pypy</td><td style="vertical-align:top;">:</td><td><div>False</div></td></tr><tr><td style="font-weight:bold;vertical-align:top;">is_source</td><td style="vertical-align:top;">:</td><td><div>False</div></td></tr><tr><td style="font-weight:bold;vertical-align:top;">local_hosts</td><td style="vertical-align:top;">:</td><td><div><table><tr><td><div>192.168.11.176</div></td></tr><tr><td><div>David.ldc.usb.ve</div></td></tr><tr><td><div>2001:0:9d38:6ab8:3c45:2eee:3f57:f44f</div></td></tr><tr><td><div>::ffff:127.0.0.1</div></td></tr><tr><td><div>::1</div></td></tr><tr><td><div>David</div></td></tr><tr><td><div>fe80::3c45:2eee:3f57:f44f%13</div></td></tr><tr><td><div>fe80::f068:3646:4339:f204%3</div></td></tr><tr><td><div>127.0.0.1</div></td></tr></table></div></td></tr><tr><td style="font-weight:bold;vertical-align:top;">path_info</td><td style="vertical-align:top;">:</td><td><div>/SIGESC/default/index/login</div></td></tr><tr><td style="font-weight:bold;vertical-align:top;">query_string</td><td style="vertical-align:top;">:</td><td><div></div></td></tr><tr><td style="font-weight:bold;vertical-align:top;">remote_addr</td><td style="vertical-align:top;">:</td><td><div>127.0.0.1</div></td></tr><tr><td style="font-weight:bold;vertical-align:top;">remote_port</td><td style="vertical-align:top;">:</td><td><div>58296</div></td></tr><tr><td style="font-weight:bold;vertical-align:top;">request_method</td><td style="vertical-align:top;">:</td><td><div>GET</div></td></tr><tr><td style="font-weight:bold;vertical-align:top;">request_uri</td><td style="vertical-align:top;">:</td><td><div>/SIGESC/default/index/login</div></td></tr><tr><td style="font-weight:bold;vertical-align:top;">script_name</td><td style="vertical-align:top;">:</td><td><div></div></td></tr><tr><td style="font-weight:bold;vertical-align:top;">server_name</td><td style="vertical-align:top;">:</td><td><div>David</div></td></tr><tr><td style="font-weight:bold;vertical-align:top;">server_port</td><td style="vertical-align:top;">:</td><td><div>8000</div></td></tr><tr><td style="font-weight:bold;vertical-align:top;">server_protocol</td><td style="vertical-align:top;">:</td><td><div>HTTP/1.1</div></td></tr><tr><td style="font-weight:bold;vertical-align:top;">server_software</td><td style="vertical-align:top;">:</td><td><div>Rocket 1.2.6</div></td></tr><tr><td style="font-weight:bold;vertical-align:top;">web2py_path</td><td style="vertical-align:top;">:</td><td><div>C:\\Users\\David\\Desktop\\web2py</div></td></tr><tr><td style="font-weight:bold;vertical-align:top;">web2py_version</td><td style="vertical-align:top;">:</td><td><div>2.9.12-stable+timestamp.2015.01.17.06.11.03</div></td></tr><tr><td style="font-weight:bold;vertical-align:top;">wsgi.errors</td><td style="vertical-align:top;">:</td><td><div>&lt;open file &#x27;&lt;stderr&gt;&#x27;, mode &#x27;w&#x27; at 0x003160D0&gt;</div></td></tr><tr><td style="font-weight:bold;vertical-align:top;">wsgi.file_wrapper</td><td style="vertical-align:top;">:</td><td><div>&lt;class wsgiref.util.FileWrapper at 0x01F8DB20&gt;</div></td></tr><tr><td style="font-weight:bold;vertical-align:top;">wsgi.input</td><td style="vertical-align:top;">:</td><td><div>&lt;socket._fileobject object at 0x06E86EB0&gt;</div></td></tr><tr><td style="font-weight:bold;vertical-align:top;">wsgi.multiprocess</td><td style="vertical-align:top;">:</td><td><div>False</div></td></tr><tr><td style="font-weight:bold;vertical-align:top;">wsgi.multithread</td><td style="vertical-align:top;">:</td><td><div>True</div></td></tr><tr><td style="font-weight:bold;vertical-align:top;">wsgi.run_once</td><td style="vertical-align:top;">:</td><td><div>False</div></td></tr><tr><td style="font-weight:bold;vertical-align:top;">wsgi.url_scheme</td><td style="vertical-align:top;">:</td><td><div>http</div></td></tr><tr><td style="font-weight:bold;vertical-align:top;">wsgi.version</td><td style="vertical-align:top;">:</td><td><div><table><tr><td><div>1</div></td></tr><tr><td><div>0</div></td></tr></table></div></td></tr><tr><td style="font-weight:bold;vertical-align:top;">wsgi_errors</td><td style="vertical-align:top;">:</td><td><div>&lt;open file &#x27;&lt;stderr&gt;&#x27;, mode &#x27;w&#x27; at 0x003160D0&gt;</div></td></tr><tr><td style="font-weight:bold;vertical-align:top;">wsgi_file_wrapper</td><td style="vertical-align:top;">:</td><td><div>&lt;class wsgiref.util.FileWrapper at 0x01F8DB20&gt;</div></td></tr><tr><td style="font-weight:bold;vertical-align:top;">wsgi_input</td><td style="vertical-align:top;">:</td><td><div>&lt;socket._fileobject object at 0x06E86EB0&gt;</div></td></tr><tr><td style="font-weight:bold;vertical-align:top;">wsgi_multiprocess</td><td style="vertical-align:top;">:</td><td><div>False</div></td></tr><tr><td style="font-weight:bold;vertical-align:top;">wsgi_multithread</td><td style="vertical-align:top;">:</td><td><div>True</div></td></tr><tr><td style="font-weight:bold;vertical-align:top;">wsgi_run_once</td><td style="vertical-align:top;">:</td><td><div>False</div></td></tr><tr><td style="font-weight:bold;vertical-align:top;">wsgi_url_scheme</td><td style="vertical-align:top;">:</td><td><div>http</div></td></tr><tr><td style="font-weight:bold;vertical-align:top;">wsgi_version</td><td style="vertical-align:top;">:</td><td><div><table><tr><td><div>1</div></td></tr><tr><td><div>0</div></td></tr></table></div></td></tr></table></div></td></tr><tr><td style="font-weight:bold;vertical-align:top;">extension</td><td style="vertical-align:top;">:</td><td><div>html</div></td></tr><tr><td style="font-weight:bold;vertical-align:top;">folder</td><td style="vertical-align:top;">:</td><td><div>C:\\Users\\David\\Desktop\\web2py\\applications\\SIGESC\\</div></td></tr><tr><td style="font-weight:bold;vertical-align:top;">function</td><td style="vertical-align:top;">:</td><td><div>index</div></td></tr><tr><td style="font-weight:bold;vertical-align:top;">global_settings</td><td style="vertical-align:top;">:</td><td><div><table><tr><td style="font-weight:bold;vertical-align:top;">app_folders</td><td style="vertical-align:top;">:</td><td><div>set([&#x27;C:\\\\Users\\\\David\\\\Desktop\\\\web2py\\\\applications\\\\admin\\\\&#x27;, &#x27;C:\\\\Users\\\\David\\\\Desktop\\\\web2py\\\\applications\\\\welcome\\\\&#x27;, &#x27;C:\\\\Users\\\\David\\\\Desktop\\\\web2py\\\\applications\\\\SIGESC\\\\&#x27;])</div></td></tr><tr><td style="font-weight:bold;vertical-align:top;">applications_parent</td><td style="vertical-align:top;">:</td><td><div>C:\\Users\\David\\Desktop\\web2py</div></td></tr><tr><td style="font-weight:bold;vertical-align:top;">cmd_args</td><td style="vertical-align:top;">:</td><td><div><table></table></div></td></tr><tr><td style="font-weight:bold;vertical-align:top;">cmd_options</td><td style="vertical-align:top;">:</td><td><div>&lt;Values at 0x2e7ad28: {&#x27;verbose&#x27;: False, &#x27;ip&#x27;: &#x27;127.0.0.1&#x27;, &#x27;debuglevel&#x27;: 30, &#x27;with_scheduler&#x27;: False, &#x27;ips&#x27;: [&#x27;127.0.0.1&#x27;, &#x27;::1&#x27;], &#x27;shutdown_timeout&#x27;: 5, &#x27;taskbar&#x27;: False, &#x27;with_coverage&#x27;: False, &#x27;scheduler_groups&#x27;: None, &#x27;port&#x27;: 8000, &#x27;maxthreads&#x27;: None, &#x27;softcron&#x27;: False, &#x27;server_name&#x27;: &#x27;David&#x27;, &#x27;bpython&#x27;: False, &#x27;nogui&#x27;: False, &#x27;pid_filename&#x27;: &#x27;httpserver.pid&#x27;, &#x27;extcron&#x27;: False, &#x27;runcron&#x27;: False, &#x27;run_system_tests&#x27;: False, &#x27;test&#x27;: None, &#x27;folder&#x27;: &#x27;C:\\\\Users\\\\David\\\\Desktop\\\\web2py&#x27;, &#x27;config&#x27;: &#x27;&#x27;, &#x27;minthreads&#x27;: None, &#x27;shell&#x27;: None, &#x27;run&#x27;: &#x27;&#x27;, &#x27;log_filename&#x27;: &#x27;httpserver.log&#x27;, &#x27;profiler_dir&#x27;: None, &#x27;args&#x27;: [&#x27;&#x27;], &#x27;socket_timeout&#x27;: 5, &#x27;ssl_ca_certificate&#x27;: None, &#x27;scheduler&#x27;: None, &#x27;interfaces&#x27;: None, &#x27;ssl_private_key&#x27;: &#x27;&#x27;, &#x27;gae&#x27;: None, &#x27;password&#x27;: &#x27;&lt;ask&gt;&#x27;, &#x27;request_queue_size&#x27;: 5, &#x27;ssl_certificate&#x27;: &#x27;&#x27;, &#x27;cronjob&#x27;: False, &#x27;numthreads&#x27;: None, &#x27;quiet&#x27;: False, &#x27;import_models&#x27;: False, &#x27;timeout&#x27;: 10, &#x27;plain&#x27;: False, &#x27;nobanner&#x27;: False}&gt;</div></td></tr><tr><td style="font-weight:bold;vertical-align:top;">db_sessions</td><td style="vertical-align:top;">:</td><td><div>set([])</div></td></tr><tr><td style="font-weight:bold;vertical-align:top;">debugging</td><td style="vertical-align:top;">:</td><td><div>True</div></td></tr><tr><td style="font-weight:bold;vertical-align:top;">gluon_parent</td><td style="vertical-align:top;">:</td><td><div>C:\\Users\\David\\Desktop\\web2py</div></td></tr><tr><td style="font-weight:bold;vertical-align:top;">is_jython</td><td style="vertical-align:top;">:</td><td><div>False</div></td></tr><tr><td style="font-weight:bold;vertical-align:top;">is_pypy</td><td style="vertical-align:top;">:</td><td><div>False</div></td></tr><tr><td style="font-weight:bold;vertical-align:top;">is_source</td><td style="vertical-align:top;">:</td><td><div>False</div></td></tr><tr><td style="font-weight:bold;vertical-align:top;">local_hosts</td><td style="vertical-align:top;">:</td><td><div><table><tr><td><div>192.168.11.176</div></td></tr><tr><td><div>David.ldc.usb.ve</div></td></tr><tr><td><div>2001:0:9d38:6ab8:3c45:2eee:3f57:f44f</div></td></tr><tr><td><div>::ffff:127.0.0.1</div></td></tr><tr><td><div>::1</div></td></tr><tr><td><div>David</div></td></tr><tr><td><div>fe80::3c45:2eee:3f57:f44f%13</div></td></tr><tr><td><div>fe80::f068:3646:4339:f204%3</div></td></tr><tr><td><div>127.0.0.1</div></td></tr></table></div></td></tr><tr><td style="font-weight:bold;vertical-align:top;">web2py_version</td><td style="vertical-align:top;">:</td><td><div>2.9.12-stable+timestamp.2015.01.17.06.11.03</div></td></tr></table></div></td></tr><tr><td style="font-weight:bold;vertical-align:top;">is_https</td><td style="vertical-align:top;">:</td><td><div>False</div></td></tr><tr><td style="font-weight:bold;vertical-align:top;">is_local</td><td style="vertical-align:top;">:</td><td><div>True</div></td></tr><tr><td style="font-weight:bold;vertical-align:top;">is_restful</td><td style="vertical-align:top;">:</td><td><div>False</div></td></tr><tr><td style="font-weight:bold;vertical-align:top;">is_sheduler</td><td style="vertical-align:top;">:</td><td><div>None</div></td></tr><tr><td style="font-weight:bold;vertical-align:top;">is_shell</td><td style="vertical-align:top;">:</td><td><div>None</div></td></tr><tr><td style="font-weight:bold;vertical-align:top;">now</td><td style="vertical-align:top;">:</td><td><div>datetime.datetime(2015, 2, 19, 15, 25, 9, 125000)</div></td></tr><tr><td style="font-weight:bold;vertical-align:top;">raw_args</td><td style="vertical-align:top;">:</td><td><div>login</div></td></tr><tr><td style="font-weight:bold;vertical-align:top;">raw_extension</td><td style="vertical-align:top;">:</td><td><div>None</div></td></tr><tr><td style="font-weight:bold;vertical-align:top;">url</td><td style="vertical-align:top;">:</td><td><div>/SIGESC/default/index/login</div></td></tr><tr><td style="font-weight:bold;vertical-align:top;">utcnow</td><td style="vertical-align:top;">:</td><td><div>datetime.datetime(2015, 2, 19, 19, 55, 9, 125000)</div></td></tr><tr><td style="font-weight:bold;vertical-align:top;">uuid</td><td style="vertical-align:top;">:</td><td><div>SIGESC/127.0.0.1.2015-02-19.15-25-09.15d01970-7391-498f-b169-873d4d5ee296</div></td></tr><tr><td style="font-weight:bold;vertical-align:top;">wsgi</td><td style="vertical-align:top;">:</td><td><div>&lt;gluon.main.LazyWSGI object at 0x078F3730&gt;</div></td></tr></table></div>'
tRp58
sS'frames'
p59
(lp60
(dp61
S'file'
p62
S'C:\\Users\\David\\Desktop\\web2py\\gluon\\restricted.py'
p63
sS'dump'
p64
(dp65
sS'lnum'
p66
I224
sS'lines'
p67
(dp68
sS'call'
p69
S'(code=r"response.write(\'<!--{% load staticfiles %}-->\\n<...iv>\\n</div>\\n</footer>\\n</body>\\n\', escape=False)", environment={\'A\': <class \'gluon.html.A\'>, \'ANY_OF\': <class \'gluon.validators.ANY_OF\'>, \'ASSIGNJS\': <function ASSIGNJS>, \'Auth\': <class \'gluon.tools.Auth\'>, \'B\': <class \'gluon.html.B\'>, \'BEAUTIFY\': <class \'gluon.html.BEAUTIFY\'>, \'BODY\': <class \'gluon.html.BODY\'>, \'BR\': <class \'gluon.html.BR\'>, \'BUTTON\': <class \'gluon.html.BUTTON\'>, \'CAT\': <class \'gluon.html.CAT\'>, ...}, layer=r\'C:\\Users\\David\\Desktop\\web2py\\applications\\SIGESC\\views\\default/index.html\')'
p70
sS'func'
p71
S'restricted'
p72
sa(dp73
g62
S'C:\\Users\\David\\Desktop\\web2py\\applications\\SIGESC\\views\\default\\index.html'
p74
sg64
(dp75
S'href'
p76
S'undefined'
p77
sS'link'
p78
g77
sS'rel'
p79
g77
ssg66
I39
sg67
(dp80
I32
S'response.write(\'" rel="stylesheet" />\\r\\n    <link href="\', escape=False)'
p81
sI33
S"response.write(URL('static', 'fonts/glyphicons-halflings-regular.woff', scheme='http'))"
p82
sI34
S'response.write(\'" rel="stylesheet" />\\r\\n    <link href="\', escape=False)'
p83
sI35
S"response.write(URL('static', 'fonts/glyphicons-halflings-regular.woff2', scheme='http'))"
p84
sI36
S'response.write(\'" rel="stylesheet" />\\r\\n    \\r\\n  </head>\\r\\n  \\r\\n  <body role="document">\\r\\n    <!-- Fixed navbar -->\\r\\n    \\r\\n    <nav class="navbar navbar-default">\\r\\n      <div class="container">\\r\\n        <div class="navbar-header">\\r\\n          <button type="button" class="navbar-toggle collapsed" data-toggle="collapse" data-target="#navbar" aria-expanded="false" aria-controls="navbar">\\r\\n            <span class="sr-only">\\r\\n              Toggle navigation\\r\\n            </span>\\r\\n            <span class="icon-bar">\\r\\n            </span>\\r\\n            <span class="icon-bar">\\r\\n            </span>\\r\\n            <span class="icon-bar">\\r\\n            </span>\\r\\n          </button>\\r\\n\\r\\n          <img class="home" src="\', escape=False)'
p85
sI37
S"response.write(URL('static', 'img/home.png'))"
p86
sI38
S'response.write(\'" />\\r\\n        </div>\\r\\n        <div id="navbar" class="navbar-collapse collapse">\\r\\n          <ul class="nav navbar-nav">\\r\\n            <li>\\r\\n              <a href="http://getbootstrap.com/examples/theme/#">\\r\\n                \\xc2\\xbfQui&eacute;nes somos?\\r\\n              </a>\\r\\n            </li>\\r\\n            <li>\\r\\n              <a href="http://getbootstrap.com/examples/theme/#about">\\r\\n                Formatos SC\\r\\n              </a>\\r\\n            </li>\\r\\n            <li>\\r\\n              <a href="http://getbootstrap.com/examples/theme/#contact">\\r\\n                Reglamentos SC\\r\\n              </a>\\r\\n            </li>\\r\\n            <li>\\r\\n              <a href="http://getbootstrap.com/examples/theme/#contact">\\r\\n                Decanato de extensi\\xc3\\xb3n\\r\\n              </a>\\r\\n            </li>\\r\\n\\t\\t\\t<li>\\r\\n              <a href="http://getbootstrap.com/examples/theme/#contact">\\r\\n                Proyectos\\r\\n              </a>\\r\\n            </li>\\r\\n            \\r\\n          </ul>\\r\\n        </div>\\r\\n        <!--/.nav-collapse -->\\r\\n      </div>\\r\\n    </nav>\\r\\n    \\r\\n    <!-- Contenido -->\\r\\n    <div class="micontainer">\\r\\n        \', escape=False)'
p87
sI39
S'response.write(form)'
p88
sI40
S'response.write(\'\\r\\n      <!--<form>\\r\\n        <br>\\r\\n        <b>\\r\\n          <h class="acces" style="color:#4682B4">\\r\\n            Acceso:\\r\\n          </h>\\r\\n          <br>\\r\\n        </b>\\r\\n        <br>\\r\\n        <b>\\r\\n          <h class="log" style="color:#A9A9A9">\\r\\n            USBID:\\r\\n          </h>\\r\\n        </b>\\r\\n        <input type="text"  name="username">\\r\\n        <br>\\r\\n        <h class="log" style="color:#A9A9A9">\\r\\n          Contrase&ntilde;a:\\r\\n        </h>\\r\\n        <input type="password"  name="password">\\r\\n        \\r\\n        <BR>\\r\\n        <a href="\', escape=False)'
p89
sI41
S"response.write(URL('estudiantes'))"
p90
sI42
S'response.write(\'">\\r\\n          <img class="ini" class="img-responsive" src="\', escape=False)'
p91
sI43
S"response.write(URL('static', 'img/log.png'))"
p92
sI44
S'response.write(\'" width="120" height="25"/>\\r\\n        </a>\\r\\n        <h class="clean" style="color:#808080">\\r\\n          | Limpiar\\r\\n        </h>\\r\\n        \\r\\n      </form>\\r\\n\\t</div>\\r\\n    <div class="row">\\r\\n      <div class="col-md-3"  style="color:#4682B4">\\r\\n        <b>\\r\\n          Noticias destacadas\\r\\n        </b>\\r\\n        <br>\\r\\n        <br>\\r\\n        <p class="informacion" align="left" style="color:#1E90FF">\\r\\n          Inscripciones abiertas\\r\\n          <br>\\r\\n          para el SC...\\r\\n        </p>\\r\\n        <p class="detalles" align="left" style="color:#808080">\\r\\n          Revisa la lista de proyectos\\r\\n          <br>\\r\\n          y registrate ahora!\\r\\n        </p>\\r\\n        <button type="button" class="btn btn-lg btn-default">\\r\\n          leer mas\\r\\n        </button>\\r\\n      </div>\\r\\n      \\r\\n      <div class="col-md-4">\\r\\n\\r\\n        <img class="img-responsive" src="\', escape=False)'
p93
sI45
S"response.write(URL('static', 'img/estudiante.png'))"
p94
sI46
S'response.write(\'" width="350" hspace="25"/>\\r\\n      </div>-->\\r\\n      \\r\\n      \\r\\n    </div>\\r\\n    \\r\\n    <div class="container-princ">\\r\\n      \\r\\n      <div class="row">\\r\\n        <div class="col-sm-4">\\r\\n          <div class="list-group">\\r\\n            <b>\\r\\n              <a href="http://getbootstrap.com/examples/theme/#" class="list-group-item active">\\r\\n                Proyectos\\r\\n              </a>\\r\\n            </b>\\r\\n            <a href="#" class="list-group-item">\\r\\n              \\r\\n              <span class="glyphicon glyphicon-music">\\r\\n              </span>\\r\\n              Ambientales\\r\\n              <span class="badge">\\r\\n                10\\r\\n              </span>\\r\\n              \\r\\n              <a href="#" class="list-group-item">\\r\\n                <span class="glyphicon glyphicon-music">\\r\\n                </span>\\r\\n                Apoyo tecnol&oacute;gico\\r\\n                <span class="badge">\\r\\n                  15\\r\\n                </span>\\r\\n                \\r\\n                <a href="#" class="list-group-item">\\r\\n                  <span class="glyphicon glyphicon-music">\\r\\n                  </span>\\r\\n                  Cultura \\r\\n                  <span class="badge">\\r\\n                    15\\r\\n                  </span>\\r\\n                  \\r\\n                  <a href="#" class="list-group-item">\\r\\n                    <span class="glyphicon glyphicon-music">\\r\\n                    </span>\\r\\n                    Desarrollo sustentable \\r\\n                    <span class="badge">\\r\\n                      18\\r\\n                    </span>\\r\\n                    \\r\\n                    <a href="#" class="list-group-item">\\r\\n                      <span class="glyphicon glyphicon-music">\\r\\n                      </span>\\r\\n                      Educativos \\r\\n                      <span class="badge">\\r\\n                        13\\r\\n                      </span>\\r\\n                      \\r\\n                      <a href="#" class="list-group-item">\\r\\n                        <span class="glyphicon glyphicon-music">\\r\\n                        </span>\\r\\n                        Infraestrusctura \\r\\n                        <span class="badge">\\r\\n                          16\\r\\n                        </span>\\r\\n                        \\r\\n                        <a href="#" class="list-group-item">\\r\\n                          <span class="glyphicon glyphicon-music">\\r\\n                          </span>\\r\\n                          Prevenci&oacute;n de emergencias \\r\\n                          <span class="badge">\\r\\n                            19\\r\\n                          </span>\\r\\n                          \\r\\n                          <a href="#" class="list-group-item">\\r\\n                            <span class="glyphicon glyphicon-music">\\r\\n                            </span>\\r\\n                            Salud \\r\\n                            <span class="badge">\\r\\n                              16\\r\\n                            </span>\\r\\n                            \\r\\n                            <a href="#" class="list-group-item">\\r\\n                              <span class="glyphicon glyphicon-music">\\r\\n                              </span>\\r\\n                              Seguridad industrial \\r\\n                              <span class="badge">\\r\\n                                17\\r\\n                              </span>\\r\\n                            </a>\\r\\n                          </div>\\r\\n                        </div>\\r\\n                        <!-- /.col-sm-4 -->\\r\\n                        \\r\\n                        \\r\\n                        <br>\\r\\n                        <div class="col-sm-4">\\r\\n                          <h4>\\r\\n                            <b>\\r\\n                              Calidad del aire y su importancia para la vida\\r\\n                            </b>\\r\\n                          </h2>\\r\\n\\r\\n                          <img class="img-responsive" src="\', escape=False)'
p95
sI47
S"response.write(URL('static', 'img/arbol.png'))"
p96
sI48
S'response.write(\'"/>\\r\\n                          <img class="img-responsive" style="margin:auto" src="\', escape=False)'
p97
sI49
S"response.write(URL('static', 'img/rollbar.png'))"
p98
sI30
S'response.write(\'" rel="stylesheet" />\\r\\n\\r\\n    <link href="\', escape=False)'
p99
sI31
S"response.write(URL('static', 'fonts/glyphicons-halflings-regular.ttf', scheme='http'))"
p100
ssg69
S'()'
p101
sg71
S'<module>'
p102
sasS'pyver'
p103
S'Python 2.7.6: C:\\Users\\David\\Desktop\\web2py\\web2py.exe (prefix: )'
p104
sS'session'
p105
g57
(S's\xb5\x01\x00\x00<div><table><tr><td style="font-weight:bold;vertical-align:top;">flash</td><td style="vertical-align:top;">:</td><td><div></div></td></tr><tr><td style="font-weight:bold;vertical-align:top;">last_orderby</td><td style="vertical-align:top;">:</td><td><div>None</div></td></tr><tr><td style="font-weight:bold;vertical-align:top;">last_query</td><td style="vertical-align:top;">:</td><td><div>db.t_sexo.id&gt;0</div></td></tr></table></div>'
tRp106
sS'etype'
p107
S"<type 'exceptions.NameError'>"
p108
sS'date'
p109
S'Thu Feb 19 15:25:09 2015'
p110
sS'response'
p111
g57
(S'sv(\x00\x00<div><table><tr><td style="font-weight:bold;vertical-align:top;">body</td><td style="vertical-align:top;">:</td><td><div>&lt;cStringIO.StringO object at 0x078F3F80&gt;</div></td></tr><tr><td style="font-weight:bold;vertical-align:top;">cookies</td><td style="vertical-align:top;">:</td><td><div><table><tr><td style="font-weight:bold;vertical-align:top;">session_id_sigesc</td><td style="vertical-align:top;">:</td><td><div>127.0.0.1-c3dc1c02-6853-4273-bc7d-c19dc0ab3689<table><tr><td style="font-weight:bold;vertical-align:top;">comment</td><td style="vertical-align:top;">:</td><td><div></div></td></tr><tr><td style="font-weight:bold;vertical-align:top;">domain</td><td style="vertical-align:top;">:</td><td><div></div></td></tr><tr><td style="font-weight:bold;vertical-align:top;">expires</td><td style="vertical-align:top;">:</td><td><div></div></td></tr><tr><td style="font-weight:bold;vertical-align:top;">httponly</td><td style="vertical-align:top;">:</td><td><div></div></td></tr><tr><td style="font-weight:bold;vertical-align:top;">max-age</td><td style="vertical-align:top;">:</td><td><div></div></td></tr><tr><td style="font-weight:bold;vertical-align:top;">path</td><td style="vertical-align:top;">:</td><td><div>/</div></td></tr><tr><td style="font-weight:bold;vertical-align:top;">secure</td><td style="vertical-align:top;">:</td><td><div></div></td></tr><tr><td style="font-weight:bold;vertical-align:top;">version</td><td style="vertical-align:top;">:</td><td><div></div></td></tr></table></div></td></tr></table></div></td></tr><tr><td style="font-weight:bold;vertical-align:top;">delimiters</td><td style="vertical-align:top;">:</td><td><div><table><tr><td><div>{{</div></td></tr><tr><td><div>}}</div></td></tr></table></div></td></tr><tr><td style="font-weight:bold;vertical-align:top;">files</td><td style="vertical-align:top;">:</td><td><div><table></table></div></td></tr><tr><td style="font-weight:bold;vertical-align:top;">flash</td><td style="vertical-align:top;">:</td><td><div></div></td></tr><tr><td style="font-weight:bold;vertical-align:top;">form_label_separator</td><td style="vertical-align:top;">:</td><td><div>: </div></td></tr><tr><td style="font-weight:bold;vertical-align:top;">formstyle</td><td style="vertical-align:top;">:</td><td><div>table3cols</div></td></tr><tr><td style="font-weight:bold;vertical-align:top;">generic_patterns</td><td style="vertical-align:top;">:</td><td><div><table><tr><td><div>*</div></td></tr></table></div></td></tr><tr><td style="font-weight:bold;vertical-align:top;">headers</td><td style="vertical-align:top;">:</td><td><div><table><tr><td style="font-weight:bold;vertical-align:top;">X-Powered-By</td><td style="vertical-align:top;">:</td><td><div>web2py</div></td></tr></table></div></td></tr><tr><td style="font-weight:bold;vertical-align:top;">menu</td><td style="vertical-align:top;">:</td><td><div><table><tr><td><div><table><tr><td><div>\xc3\x8dndice</div></td></tr><tr><td><div>True</div></td></tr><tr><td><div>/SIGESC/default/index</div></td></tr><tr><td><div><table></table></div></td></tr></table></div></td></tr><tr><td><div><table><tr><td><div>Estado</div></td></tr><tr><td><div>False</div></td></tr><tr><td><div>/SIGESC/default/estado_manage</div></td></tr><tr><td><div><table></table></div></td></tr></table></div></td></tr><tr><td><div><table><tr><td><div>Sede</div></td></tr><tr><td><div>False</div></td></tr><tr><td><div>/SIGESC/default/sede_manage</div></td></tr><tr><td><div><table></table></div></td></tr></table></div></td></tr><tr><td><div><table><tr><td><div>Comunidad</div></td></tr><tr><td><div>False</div></td></tr><tr><td><div>/SIGESC/default/comunidad_manage</div></td></tr><tr><td><div><table></table></div></td></tr></table></div></td></tr><tr><td><div><table><tr><td><div>Area</div></td></tr><tr><td><div>False</div></td></tr><tr><td><div>/SIGESC/default/area_manage</div></td></tr><tr><td><div><table></table></div></td></tr></table></div></td></tr><tr><td><div><table><tr><td><div>Sexo</div></td></tr><tr><td><div>False</div></td></tr><tr><td><div>/SIGESC/default/sexo_manage</div></td></tr><tr><td><div><table></table></div></td></tr></table></div></td></tr><tr><td><div><table><tr><td><div>Estudiante</div></td></tr><tr><td><div>False</div></td></tr><tr><td><div>/SIGESC/default/estudiante_manage</div></td></tr><tr><td><div><table></table></div></td></tr></table></div></td></tr><tr><td><div><table><tr><td><div>Proponente</div></td></tr><tr><td><div>False</div></td></tr><tr><td><div>/SIGESC/default/proponente_manage</div></td></tr><tr><td><div><table></table></div></td></tr></table></div></td></tr><tr><td><div><table><tr><td><div>Tutor</div></td></tr><tr><td><div>False</div></td></tr><tr><td><div>/SIGESC/default/tutor_manage</div></td></tr><tr><td><div><table></table></div></td></tr></table></div></td></tr><tr><td><div><table><tr><td><div>Proyecto</div></td></tr><tr><td><div>False</div></td></tr><tr><td><div>/SIGESC/default/proyecto_manage</div></td></tr><tr><td><div><table></table></div></td></tr></table></div></td></tr><tr><td><div><table><tr><td><div>Condicion</div></td></tr><tr><td><div>False</div></td></tr><tr><td><div>/SIGESC/default/condicion_manage</div></td></tr><tr><td><div><table></table></div></td></tr></table></div></td></tr><tr><td><div><table><tr><td><div>Caracterisicas</div></td></tr><tr><td><div>False</div></td></tr><tr><td><div>/SIGESC/default/caracterisicas_manage</div></td></tr><tr><td><div><table></table></div></td></tr></table></div></td></tr><tr><td><div><table><tr><td><div>Cursa</div></td></tr><tr><td><div>False</div></td></tr><tr><td><div>/SIGESC/default/cursa_manage</div></td></tr><tr><td><div><table></table></div></td></tr></table></div></td></tr><tr><td><div><table><tr><td><div>Carrera</div></td></tr><tr><td><div>False</div></td></tr><tr><td><div>/SIGESC/default/carrera_manage</div></td></tr><tr><td><div><table></table></div></td></tr></table></div></td></tr><tr><td><div><table><tr><td><div>Tipoprop</div></td></tr><tr><td><div>False</div></td></tr><tr><td><div>/SIGESC/default/tipoprop_manage</div></td></tr><tr><td><div><table></table></div></td></tr></table></div></td></tr><tr><td><div><table><tr><td><div>Relacionestproy</div></td></tr><tr><td><div>False</div></td></tr><tr><td><div>/SIGESC/default/relacionestproy_manage</div></td></tr><tr><td><div><table></table></div></td></tr></table></div></td></tr></table></div></td></tr><tr><td style="font-weight:bold;vertical-align:top;">meta</td><td style="vertical-align:top;">:</td><td><div><table><tr><td style="font-weight:bold;vertical-align:top;">author</td><td style="vertical-align:top;">:</td><td><div>Roraima Tech &lt;you@example.com&gt;</div></td></tr><tr><td style="font-weight:bold;vertical-align:top;">description</td><td style="vertical-align:top;">:</td><td><div></div></td></tr><tr><td style="font-weight:bold;vertical-align:top;">keywords</td><td style="vertical-align:top;">:</td><td><div></div></td></tr></table></div></td></tr><tr><td style="font-weight:bold;vertical-align:top;">models_to_run</td><td style="vertical-align:top;">:</td><td><div><table><tr><td><div>^\\w+\\.py$</div></td></tr><tr><td><div>^default/\\w+\\.py$</div></td></tr><tr><td><div>^default/index/\\w+\\.py$</div></td></tr></table></div></td></tr><tr><td style="font-weight:bold;vertical-align:top;">postprocessing</td><td style="vertical-align:top;">:</td><td><div><table></table></div></td></tr><tr><td style="font-weight:bold;vertical-align:top;">session_client</td><td style="vertical-align:top;">:</td><td><div>127.0.0.1</div></td></tr><tr><td style="font-weight:bold;vertical-align:top;">session_cookie_compression_level</td><td style="vertical-align:top;">:</td><td><div>None</div></td></tr><tr><td style="font-weight:bold;vertical-align:top;">session_cookie_expires</td><td style="vertical-align:top;">:</td><td><div>None</div></td></tr><tr><td style="font-weight:bold;vertical-align:top;">session_cookie_key</td><td style="vertical-align:top;">:</td><td><div>None</div></td></tr><tr><td style="font-weight:bold;vertical-align:top;">session_data_name</td><td style="vertical-align:top;">:</td><td><div>session_data_sigesc</div></td></tr><tr><td style="font-weight:bold;vertical-align:top;">session_file</td><td style="vertical-align:top;">:</td><td><div>&lt;open file &#x27;C:\\\\Users\\\\David\\\\Desktop\\\\web2py\\\\applications\\\\SIGESC\\\\sessions\\\\08c\\\\1f5\\\\127.0.0.1-c3dc1c02-6853-4273-bc7d-c19dc0ab3689&#x27;, mode &#x27;rb+&#x27; at 0x079A22E0&gt;</div></td></tr><tr><td style="font-weight:bold;vertical-align:top;">session_filename</td><td style="vertical-align:top;">:</td><td><div>C:\\Users\\David\\Desktop\\web2py\\applications\\SIGESC\\sessions\\127.0.0.1-c3dc1c02-6853-4273-bc7d-c19dc0ab3689</div></td></tr><tr><td style="font-weight:bold;vertical-align:top;">session_hash</td><td style="vertical-align:top;">:</td><td><div>e2c259a94a93dcc10bc4271094edcd94</div></td></tr><tr><td style="font-weight:bold;vertical-align:top;">session_id</td><td style="vertical-align:top;">:</td><td><div>127.0.0.1-c3dc1c02-6853-4273-bc7d-c19dc0ab3689</div></td></tr><tr><td style="font-weight:bold;vertical-align:top;">session_id_name</td><td style="vertical-align:top;">:</td><td><div>session_id_sigesc</div></td></tr><tr><td style="font-weight:bold;vertical-align:top;">session_locked</td><td style="vertical-align:top;">:</td><td><div>True</div></td></tr><tr><td style="font-weight:bold;vertical-align:top;">session_masterapp</td><td style="vertical-align:top;">:</td><td><div>SIGESC</div></td></tr><tr><td style="font-weight:bold;vertical-align:top;">session_new</td><td style="vertical-align:top;">:</td><td><div>False</div></td></tr><tr><td style="font-weight:bold;vertical-align:top;">session_storage_type</td><td style="vertical-align:top;">:</td><td><div>file</div></td></tr><tr><td style="font-weight:bold;vertical-align:top;">status</td><td style="vertical-align:top;">:</td><td><div>200</div></td></tr><tr><td style="font-weight:bold;vertical-align:top;">subtitle</td><td style="vertical-align:top;">:</td><td><div>Sistema de Gestion del Servicio Comunitario</div></td></tr><tr><td style="font-weight:bold;vertical-align:top;">title</td><td style="vertical-align:top;">:</td><td><div>SIGESC</div></td></tr><tr><td style="font-weight:bold;vertical-align:top;">view</td><td style="vertical-align:top;">:</td><td><div>default/index.html</div></td></tr></table></div>'
tRp112
sS'locals'
p113
(dp114
S'Service'
p115
S"<class 'gluon.tools.Service'>"
p116
sS'OBJECT'
p117
S"<class 'gluon.html.OBJECT'>"
p118
sS'SQLDB'
p119
S"<class 'gluon.dal.base.DAL'>"
p120
sg105
S"<Storage {'flash': '', '_user_agent': <Storage {...37f80', '9656fd9e-5b23-4f22-ac1c-340eefb4f893']}>"
p121
sS'LINK'
p122
S"<class 'gluon.html.LINK'>"
p123
sS'BR'
p124
S"<class 'gluon.html.BR'>"
p125
sS'local_import'
p126
S'<function <lambda>>'
p127
sS'OPTGROUP'
p128
S"<class 'gluon.html.OPTGROUP'>"
p129
sS'__package__'
p130
S'None'
p131
sS'PRE'
p132
S"<class 'gluon.html.PRE'>"
p133
sS'IS_INT_IN_RANGE'
p134
S"<class 'gluon.validators.IS_INT_IN_RANGE'>"
p135
sS'IS_LOWER'
p136
S"<class 'gluon.validators.IS_LOWER'>"
p137
sS'IS_STRONG'
p138
S"<class 'gluon.validators.IS_STRONG'>"
p139
sS'cache'
p140
S'<gluon.cache.Cache object>'
p141
sS'IS_IN_DB'
p142
S"<class 'gluon.validators.IS_IN_DB'>"
p143
sS'TAG'
p144
S'<gluon.html.__TAG__ object>'
p145
sS'SQLField'
p146
S"<class 'gluon.dal.objects.Field'>"
p147
sS'mail'
p148
S'<gluon.tools.Mail object>'
p149
sS'BODY'
p150
S"<class 'gluon.html.BODY'>"
p151
sS'IS_DATE_IN_RANGE'
p152
S"<class 'gluon.validators.IS_DATE_IN_RANGE'>"
p153
sS'IFRAME'
p154
S"<class 'gluon.html.IFRAME'>"
p155
sS'URL'
p156
S'<function URL>'
p157
sS'__file__'
p158
S"r'C:\\Users\\David\\Desktop\\web2py\\applications\\SIGESC\\views\\default/index.html'"
p159
sS'db'
p160
S'<DAL uri="sqlite://storage.sqlite">'
p161
sS'auth'
p162
S'<gluon.tools.Auth object>'
p163
sS'P'
S"<class 'gluon.html.P'>"
p164
sS'TFOOT'
p165
S"<class 'gluon.html.TFOOT'>"
p166
sS'XHTML'
p167
S"<class 'gluon.html.XHTML'>"
p168
sS'ON'
p169
S'True'
p170
sS'OL'
p171
S"<class 'gluon.html.OL'>"
p172
sS'TEXTAREA'
p173
S"<class 'gluon.html.TEXTAREA'>"
p174
sS'settings'
p175
S"<Storage {'layout_theme': 'Default', 'subtitle':...l_server': 'localhost', 'login_method': 'local'}>"
p176
sS'MENU'
p177
S"<class 'gluon.html.MENU'>"
p178
sS'IS_IMAGE'
p179
S"<class 'gluon.validators.IS_IMAGE'>"
p180
sS'EM'
p181
S"<class 'gluon.html.EM'>"
p182
sS'CODE'
p183
S"<class 'gluon.html.CODE'>"
p184
sS'HTTP'
p185
S"<class 'gluon.http.HTTP'>"
p186
sS'HR'
p187
S"<class 'gluon.html.HR'>"
p188
sS'IS_DATETIME'
p189
S"<class 'gluon.validators.IS_DATETIME'>"
p190
sS'Storage'
p191
S"<class 'gluon.storage.Storage'>"
p192
sS'STYLE'
p193
S"<class 'gluon.html.STYLE'>"
p194
sS'LABEL'
p195
S"<class 'gluon.html.LABEL'>"
p196
sS'CLEANUP'
p197
S"<class 'gluon.validators.CLEANUP'>"
p198
sS'plugins'
p199
S'<gluon.tools.PluginManager object>'
p200
sS'SELECT'
p201
S"<class 'gluon.html.SELECT'>"
p202
sS'use_janrain'
p203
S'<function use_janrain>'
p204
sS'CENTER'
p205
S"<class 'gluon.html.CENTER'>"
p206
sS'Auth'
p207
S"<class 'gluon.tools.Auth'>"
p208
sS'__builtins__'
p209
S"{'ArithmeticError': <type 'exceptions.ArithmeticError'>, 'AssertionError': <type 'exceptions.AssertionError'>, 'AttributeError': <type 'exceptions.AttributeError'>, 'BaseException': <type 'exceptions.BaseException'>, 'BufferError': <type 'exceptions.BufferError'>, 'BytesWarning': <type 'exceptions.BytesWarning'>, 'DeprecationWarning': <type 'exceptions.DeprecationWarning'>, 'EOFError': <type 'exceptions.EOFError'>, 'Ellipsis': Ellipsis, 'EnvironmentError': <type 'exceptions.EnvironmentError'>, ...}"
p210
sS'HTML'
p211
S"<class 'gluon.html.HTML'>"
p212
sS'SQLFORM'
p213
S"<class 'gluon.sqlhtml.SQLFORM'>"
p214
sS'LOAD'
p215
S'<function LOAD>'
p216
sS'redirect'
p217
S'<function redirect>'
p218
sS'FIELDSET'
p219
S"<class 'gluon.html.FIELDSET'>"
p220
sS'IS_EQUAL_TO'
p221
S"<class 'gluon.validators.IS_EQUAL_TO'>"
p222
sS'embed64'
p223
S'<function embed64>'
p224
sS'IS_LIST_OF'
p225
S"<class 'gluon.validators.IS_LIST_OF'>"
p226
sS'INPUT'
p227
S"<class 'gluon.html.INPUT'>"
p228
sS'EMBED'
p229
S"<class 'gluon.html.EMBED'>"
p230
sS'H2'
p231
S"<class 'gluon.html.H2'>"
p232
sS'H3'
p233
S"<class 'gluon.html.H3'>"
p234
sS'BUTTON'
p235
S"<class 'gluon.html.BUTTON'>"
p236
sS'H1'
p237
S"<class 'gluon.html.H1'>"
p238
sS'H6'
p239
S"<class 'gluon.html.H6'>"
p240
sS'H4'
p241
S"<class 'gluon.html.H4'>"
p242
sS'H5'
p243
S"<class 'gluon.html.H5'>"
p244
sS'UL'
p245
S"<class 'gluon.html.UL'>"
p246
sS'IS_UPPER'
p247
S"<class 'gluon.validators.IS_UPPER'>"
p248
sS'xmlescape'
p249
S'<function xmlescape>'
p250
sS'IS_TIME'
p251
S"<class 'gluon.validators.IS_TIME'>"
p252
sS'OPTION'
p253
S"<class 'gluon.html.OPTION'>"
p254
sS'TITLE'
p255
S"<class 'gluon.html.TITLE'>"
p256
sS'CRYPT'
p257
S"<class 'gluon.validators.CRYPT'>"
p258
sS'IS_EMPTY_OR'
p259
S"<class 'gluon.validators.IS_EMPTY_OR'>"
p260
sS'MARKMIN'
p261
S"<class 'gluon.html.MARKMIN'>"
p262
sS'__name__'
p263
S"'__restricted__'"
p264
sS'STRONG'
p265
S"<class 'gluon.html.STRONG'>"
p266
sS'COL'
p267
S"<class 'gluon.html.COL'>"
p268
sS'service'
p269
S'<gluon.tools.Service object>'
p270
sS'SCRIPT'
p271
S"<class 'gluon.html.SCRIPT'>"
p272
sS'TABLE'
p273
S"<class 'gluon.html.TABLE'>"
p274
sS'IS_IPV4'
p275
S"<class 'gluon.validators.IS_IPV4'>"
p276
sS'IS_LENGTH'
p277
S"<class 'gluon.validators.IS_LENGTH'>"
p278
sS'IS_IPV6'
p279
S"<class 'gluon.validators.IS_IPV6'>"
p280
sS'XML'
p281
S"<class 'gluon.html.XML'>"
p282
sS'B'
S"<class 'gluon.html.B'>"
p283
sS'IMG'
p284
S"<class 'gluon.html.IMG'>"
p285
sS'SQLTABLE'
p286
S"<class 'gluon.sqlhtml.SQLTABLE'>"
p287
sS'IS_MATCH'
p288
S"<class 'gluon.validators.IS_MATCH'>"
p289
sS'IS_ALPHANUMERIC'
p290
S"<class 'gluon.validators.IS_ALPHANUMERIC'>"
p291
sS'SPAN'
p292
S"<class 'gluon.html.SPAN'>"
p293
sS'IS_JSON'
p294
S"<class 'gluon.validators.IS_JSON'>"
p295
sS'IS_IPADDRESS'
p296
S"<class 'gluon.validators.IS_IPADDRESS'>"
p297
sS'IS_SLUG'
p298
S"<class 'gluon.validators.IS_SLUG'>"
p299
sS'BEAUTIFY'
p300
S"<class 'gluon.html.BEAUTIFY'>"
p301
sS'META'
p302
S"<class 'gluon.html.META'>"
p303
sS'IS_DATE'
p304
S"<class 'gluon.validators.IS_DATE'>"
p305
sS'IS_EMAIL'
p306
S"<class 'gluon.validators.IS_EMAIL'>"
p307
sS'IS_NOT_EMPTY'
p308
S"<class 'gluon.validators.IS_NOT_EMPTY'>"
p309
sS'IS_FLOAT_IN_RANGE'
p310
S"<class 'gluon.validators.IS_FLOAT_IN_RANGE'>"
p311
sS'TBODY'
p312
S"<class 'gluon.html.TBODY'>"
p313
sS'CAT'
p314
S"<class 'gluon.html.CAT'>"
p315
sS'Field'
p316
S"<class 'gluon.dal.objects.Field'>"
p317
sS'IS_LIST_OF_EMAILS'
p318
S"<class 'gluon.validators.IS_LIST_OF_EMAILS'>"
p319
sS'DIV'
p320
S"<class 'gluon.html.DIV'>"
p321
sS'LEGEND'
p322
S"<class 'gluon.html.LEGEND'>"
p323
sS'COLGROUP'
p324
S"<class 'gluon.html.COLGROUP'>"
p325
sS'DAL'
p326
S"<class 'gluon.dal.base.DAL'>"
p327
sS'ASSIGNJS'
p328
S'<function ASSIGNJS>'
p329
sS'TR'
p330
S"<class 'gluon.html.TR'>"
p331
sS'LI'
p332
S"<class 'gluon.html.LI'>"
p333
sS'TH'
p334
S"<class 'gluon.html.TH'>"
p335
sS'TD'
p336
S"<class 'gluon.html.TD'>"
p337
sS'PluginManager'
p338
S"<class 'gluon.tools.PluginManager'>"
p339
sS'IS_URL'
p340
S"<class 'gluon.validators.IS_URL'>"
p341
sS'A'
S"<class 'gluon.html.A'>"
p342
sS'HEAD'
p343
S"<class 'gluon.html.HEAD'>"
p344
sS'IS_DATETIME_IN_RANGE'
p345
S"<class 'gluon.validators.IS_DATETIME_IN_RANGE'>"
p346
sS'FORM'
p347
S"<class 'gluon.html.FORM'>"
p348
sS'I'
S"<class 'gluon.html.I'>"
p349
sS'IS_NOT_IN_DB'
p350
S"<class 'gluon.validators.IS_NOT_IN_DB'>"
p351
sg111
S"<Storage {'body': <cStringIO.StringO object at 0...a> at 0x06E86830>, 'view': 'default/index.html'}>"
p352
sS'THEAD'
p353
S"<class 'gluon.html.THEAD'>"
p354
sS'ANY_OF'
p355
S"<class 'gluon.validators.ANY_OF'>"
p356
sS'IS_NULL_OR'
p357
S"<class 'gluon.validators.IS_EMPTY_OR'>"
p358
sg56
S"<Storage {'_vars': None, 'function': 'index', 'c...David\\\\Desktop\\\\web2py\\\\applications\\\\SIGESC\\\\'}>"
p359
sS'IS_EXPR'
p360
S"<class 'gluon.validators.IS_EXPR'>"
p361
sS'T'
S'<gluon.languages.translator object>'
p362
sS'IS_IN_SET'
p363
S"<class 'gluon.validators.IS_IN_SET'>"
p364
sS'IS_UPLOAD_FILENAME'
p365
S"<class 'gluon.validators.IS_UPLOAD_FILENAME'>"
p366
sS'TT'
p367
S"<class 'gluon.html.TT'>"
p368
sS'IS_DECIMAL_IN_RANGE'
p369
S"<class 'gluon.validators.IS_DECIMAL_IN_RANGE'>"
p370
sssS'traceback'
p371
S'Traceback (most recent call last):\n  File "gluon/restricted.py", line 224, in restricted\n  File "C:\\Users\\David\\Desktop\\web2py\\applications\\SIGESC\\views\\default/index.html", line 39, in <module>\n    <link href="{{=URL(\'static\', \'fonts/glyphicons-halflings-regular.ttf\', scheme=\'http\')}}" rel="stylesheet" />\nNameError: name \'form\' is not defined\n'
p372
s.