(dp1
S'output'
p2
S"<type 'exceptions.SyntaxError'> invalid syntax (estudiantes.html, line 47)"
p3
sS'layer'
p4
S'/home/daniel/Descargas/web2py/applications/SIGESC/views/default/estudiantes.html'
p5
sS'code'
p6
S'response.write(\'<!--{% load staticfiles %}-->\\n<!DOCTYPE html>\\n<html>\\n<head>\\n\\t<meta charset="utf-8">\\n\\t<meta http-equiv="Content-Type" content="text/html; charset=UTF-8">\\n\\t<meta http-equiv="X-UA-Compatible" content="IE=edge">\\n\\t<meta name="viewport" content="width=device-width, initial-scale=1.0">\\n\\t<title>CFCG</title>\\n\\n\\t\\n\\t<!-- Compiled and minified CSS -->\\n\\t<!--<link rel="stylesheet" href="{% static \\\'css/bootstrap.min.css\\\' %} ">-->\\n\\t<link href="\', escape=False)\nresponse.write(URL(\'static\', \'css/bootstrap.min.css\', scheme=\'http\'))\nresponse.write(\'" rel="stylesheet" />\\n\\t<!-- Optional theme -->\\n\\t<!--<link rel="stylesheet" href="{% static \\\'css/bootstrap-theme.min.css\\\' %}">-->\\n\\t<link href="\', escape=False)\nresponse.write(URL(\'static\', \'css/bootstrap-theme.min.css\', scheme=\'http\'))\nresponse.write(\'" rel="stylesheet" />\\n\\t<!-- Latest compiled and minified JavaScript -->\\n\\t<!--<script src="{% static \\\'js/bootstrap.min.js\\\' %}"></script>-->\\t\\n\\t<link href="\', escape=False)\nresponse.write(URL(\'static\', \'css/bootstrap.min.js\', scheme=\'http\'))\nresponse.write(\'" rel="stylesheet"/>\\n\\n</head>\\n<body>\\n\\t<header>\\n\\t\\t<div align="center">\\n\\t\\t\\t\\t<img src="\', escape=False)\nresponse.write(URL(\'static\', \'img/top.png\'))\nresponse.write(\'" class="img-responsive" alt="top" width="73%">\\n\\t\\t\\t</a>\\n\\t\\t</div>\\n\\t</header>\\n\\t\\n\\t<div class="container" style="width: 75%;">\\n\\t\\t\', escape=False)\nresponse.write(\'\\r\\n\\r\\n{% load bootstrap %}\\r\\n\\r\\n{% load static %}\\r\\n\\r\\n<!DOCTYPE html>\\r\\n<!-- saved from url=(0039)http://getbootstrap.com/examples/theme/ -->\\r\\n<html lang="en">\\r\\n  <head>\\r\\n    <meta http-equiv="Content-Type" content="text/html; charset=UTF-8">\\r\\n    <meta charset="utf-8">\\r\\n    <meta http-equiv="X-UA-Compatible" content="IE=edge">\\r\\n    <meta name="viewport" content="width=device-width, initial-scale=1">\\r\\n    <meta name="description" content="">\\r\\n    <meta name="author" content="">\\r\\n    \\r\\n    <link rel="icon" href="http://getbootstrap.com/favicon.ico">\\r\\n\\r\\n    <link rel="stylesheet" href="\', escape=False)\nresponse.write(URL(\'static\', \'css/font-awesome.min.css\'))\nresponse.write(\'">\\r\\n    \\r\\n    \\r\\n    \', escape=False)\nresponse.write(URL(\'static\', \'css/proponentes.css\'))\nresponse.write(\'\\r\\n    <link rel="stylesheet" href="\', escape=False)\nresponse.write(URL(\'static\', \'css/bootstrap.min.css\'))\nresponse.write(\'">\\r\\n    <link rel="stylesheet" href="\', escape=False)\nresponse.write(URL(\'static\', \'css/Pag_principal.css\'))\nresponse.write(\'%}">\\r\\n    <link rel="stylesheet" href="\', escape=False)\nresponse.write(URL(\'static\', \'css/proponentes.css\'))\nresponse.write(\'">\\r\\n    \\r\\n    <link rel="icon" href="//getbootstrap.com/favicon.ico">\\r\\n    \\r\\n    \\r\\n    \\r\\n    <!-- Bootstrap core CSS -->    \\r\\n    <link href="\', escape=False)\nresponse.write(URL(\'static\', \'css/bootstrap.css\'))\nresponse.write(\'" rel="stylesheet">\\r\\n    <!-- Bootstrap theme -->    \\r\\n    <link href="\', escape=False)\nresponse.write(URL(\'static\', \'css/bootstrap-theme.css\'))\nresponse.write(\'" rel="stylesheet">\\r\\n\\r\\n    <script type="text/javascript" src="\', escape=False)\nresponse.write(URL(\'static\', \'js/jquery-1.11.2.js\'))\nresponse.write(\'">\\r\\n    </script>\\r\\n    \\r\\n    <!-- Custom styles for this template -->\\r\\n    \\r\\n    <link href="\', escape=False)\nresponse.write(URL(\'static\', \'css/theme.css\'))\nresponse.write(\'" rel="stylesheet">    \\r\\n    <link href="\', escape=False)\nresponse.write(URL(\'static\', \'js/bootstrap.js\'))\nresponse.write(\'" rel="stylesheet">\\r\\n    \\r\\n    <link href="\', escape=False)\nresponse.write(URL(\'static\', \'fonts/glyphicons-halflings-regular.svg\', scheme=\'http\'))\nresponse.write(\'" rel="stylesheet"/>\\r\\n    <link href="\', escape=False)\nresponse.write(URL(\'static\', \'fonts/glyphicons-halflings-regular.eot\', scheme=\'http\'))\nresponse.write(\'" rel="stylesheet" />\\r\\n\\r\\n    <link href="\', escape=False)\nresponse.write(URL(\'static\', \'fonts/glyphicons-halflings-regular.ttf\', scheme=\'http\'))\nresponse.write(\'" rel="stylesheet" />\\r\\n    <link href="\', escape=False)\nresponse.write(URL(\'static\', \'fonts/glyphicons-halflings-regular.woff\', scheme=\'http\'))\nresponse.write(\'" rel="stylesheet" />\\r\\n    <link href="\', escape=False)\nresponse.write(URL(\'static\', \'fonts/glyphicons-halflings-regular.woff2\', scheme=\'http\'))\nresponse.write(\'" rel="stylesheet" />\\r\\n    \\r\\n  </head>\\r\\n  \\r\\n  <body role="document">\\r\\n    <!-- Fixed navbar -->\\r\\n    \\r\\n    <nav class="navbar navbar-default">\\r\\n      <div class="container">\\r\\n        <div class="navbar-header">\\r\\n          <button type="button" class="navbar-toggle collapsed" data-toggle="collapse" data-target="#navbar" aria-expanded="false" aria-controls="navbar">\\r\\n            <span class="sr-only">\\r\\n              Toggle navigation\\r\\n            </span>\\r\\n            <span class="icon-bar">\\r\\n            </span>\\r\\n            <span class="icon-bar">\\r\\n            </span>\\r\\n            <span class="icon-bar">\\r\\n            </span>\\r\\n          </button>\\r\\n          <img class="home" src="\', escape=False)\nresponse.write(URL(\'static\', \'img/home.png\'))\nresponse.write(\'" />\\r\\n        </div>\\r\\n        <div id="navbar" class="navbar-collapse collapse">\\r\\n          <ul class="nav navbar-nav">\\r\\n            <li>\\r\\n              <a href="http://getbootstrap.com/examples/theme/#">\\r\\n                \\xc2\\xbfQui&eacute;nes somos?\\r\\n              </a>\\r\\n            </li>\\r\\n            <li>\\r\\n              <a href="http://getbootstrap.com/examples/theme/#about">\\r\\n                Formatos SC\\r\\n              </a>\\r\\n            </li>\\r\\n            <li>\\r\\n              <a href="http://getbootstrap.com/examples/theme/#contact">\\r\\n                Reglamentos SC\\r\\n              </a>\\r\\n            </li>\\r\\n            <li>\\r\\n              <a href="http://getbootstrap.com/examples/theme/#contact">\\r\\n                Decanato de extensi\\xc3\\xb3n\\r\\n              </a>\\r\\n            </li>\\r\\n\\t\\t\\t<li>\\r\\n              <a href="http://getbootstrap.com/examples/theme/#contact">\\r\\n                Proyectos\\r\\n              </a>\\r\\n            </li>\\r\\n            \\r\\n          </ul>\\r\\n        </div>\\r\\n        <!--/.nav-collapse -->\\r\\n      </div>\\r\\n    </nav>\\r\\n    \\r\\n <!--Content -->\\r\\n\\t<div class="row">\\r\\n\\t      <div class="col-md-2">\\r\\n\\r\\n\\t\\t<img src="\', escape=False)\nresponse.write(URL(\'static\', \'img/prop1.png\'))\nresponse.write(\'" class="img-responsive" id="tutores"/>\\r\\n\\t      </div>\\r\\n\\t      \\r\\n\\t      <div class="col-md-3 subtitulo" style="color:#4682B4">\\r\\n\\t\\t<b><i>Home/Proponentes</b></i>\\r\\n\\t      </div>\\r\\n\\t      \\r\\n\\t      <div class="col-md-6" align="right">\\r\\n\\r\\n\\t\\t<img class="exit" src="\', escape=False)\nresponse.write(URL(\'static\', \'img/salida_icon.png\'))\nresponse.write(\'"/>\\r\\n\\t      </div>\\r\\n\\t</div>\\r\\n\\t\\r\\n\\t<div class="row" id="line">\\r\\n\\t   <hr>\\r\\n\\t</div>\\r\\n    \\r\\n\\t\', escape=False)\nif msj\nresponse.write(\' <p><strong>\', escape=False)\nresponse.write(msj)\nresponse.write(\'</strong></p>\\r\\n\\t\', escape=False)\nelse:\n    response.write(\'\\r\\n\\t\\t<div class="row">\\r\\n\\t\\t\\t<div class="col-md-6" style="text-align: left">\\r\\n\\t\\t\\t\\t<div class="row">\\r\\n\\t\\t\\t\\t\\t<i class="fa fa-pencil-square-o fa-3x" style="color: #4682B4"></i><h class="reg"> Registro de estudiante</h><br> \\r\\n\\t\\t      \\t</div>\\r\\n\\t\\t\\t\\t\\r\\n\\t\\t\\t\\t\\t<form enctype="multipart/form-data" method="post" action="">\\r\\n\\t\\t\\t\\t\\t\', escape=False)\n    response.write(form)\n    response.write(\'\\r\\n\\t\\t\\t\\t\\t<input type="submit" value="registrarse"/>\\r\\n\\t\\t\\t</div>\\r\\n\\t\\r\\n\\t\\t\\t<div class="col-md-6" style="text-align: left; margin-top: 44px; width: 50%">\\r\\n\\t\\t\\t\\t<div class="row">\\r\\n\\t\\t\\t\\t\\t<i class="fa fa-list-alt fa-3x" style="color: #4682B4"></i> <h class="reg">Estudiantes registrados</h>      \\r\\n\\t\\t\\t\\t</div>\\r\\n\\t\\t\\t\\t\\r\\n\\t\\t\\t\\t<div class="row">\\r\\n\\t\\t\\t\\t\\t<table id="props" class="table table-condensed">\\t\\t\\r\\n\\t\\t\\t\\t\\t\\t\\t\\t\', escape=False)\n    for estudiante in est:\n        response.write(\'\\r\\n\\t\\t\\t\\t\\t\\t\\t<tr>\\r\\n\\t\\t\\t\\t\\t\\t\\t\\t<td>\\r\\n\\t\\t\\t\\t\\t\\t\\t\\t\\t<a href="\', escape=False)\n        response.write(URL(r=request,f=\'estudiantesDetalles\',args=estudiante.id))\n        response.write(\'">\', escape=False)\n        response.write(estudiante)\n        response.write(\'</a>\\r\\n\\t\\t\\t\\t\\t\\t\\t\\t</td>\\r\\n\\t\\t\\t\\t\\t\\t\\t</tr>\\r\\n\\t\\t\\t\\t\\t\\t\', escape=False)\n        pass\n    response.write(\'\\r\\n\\t\\t\\t\\t\\t</table>\\r\\n\\t\\t\\t\\t</div>\\r\\n\\t\\t\\t</div>\\r\\n\\t</div>\\r\\n\\t\', escape=False)\n    pass\nresponse.write(\'\\r\\n\', escape=False)\nendblock\nresponse.write(\'\\r\\n\', escape=False)\nresponse.write(\'\\n\\t</div>\\n\\t\\n\\t\\n<footer style="margin-top: 5%">\\n<div align="center">\\n\\t<div>\\n\\t\\t<div>\\n\\t\\t\\t<div>\\n\\t\\t\\t\\t<table align="center" border="0" cellpadding="1" cellspacing="1"><tbody><tr><td valign="bottom" width="95">\\n\\t\\t\\t\\t<a href="http://www.usb.ve"><img alt="" src="http://cfgc.dex.usb.ve/sites/default/files/cebolla_70_45.jpg"></a></td>\\n\\t\\t\\t\\t<td valign="bottom">\\n\\t\\t\\t\\t<a href="http://www.usb.ve/estudios/calendario.html" target="_blank">Calendario </a>|<a href="http://www.usb.ve/telefonico/telefonico.php?tipo=personal" target="_blank"> Directorio USB </a>|<a href="https://asignaturas.usb.ve/" target="_blank"> Aula Virtual USB</a> |<a href="https://webmail.usb.ve/" target="_blank"> Webmail</a>|<a href="http://www.usb.ve/buscador.php" target="_blank"> Buscador</a> |<br>\\n\\t\\t\\t\\tSartenejas, Baruta, Edo. Miranda - Apartado 89000 - Cable Unibolivar - Caracas Venezuela. Telefono +58 0212-9063111<br>\\n\\t\\t\\t\\tDisenada y desarrollada por la Direccion de Servicios Multimedia <a href="mailto:webmaster@usb.ve">webmaster@usb.ve</a></td>\\n\\t\\t\\t\\t</tr></tbody></table><p>\\n\\t\\t\\t\\t&nbsp;</p>\\n\\t\\t\\t</div>\\n\\t\\t</div>\\n\\t</div>\\n</div>\\n</footer>\\n</body>\\n\', escape=False)'
p7
sS'snapshot'
p8
(dp9
S'exception'
p10
(dp11
S'__getslice__'
p12
S"<method-wrapper '__getslice__' of exceptions.SyntaxError object>"
p13
sS'text'
p14
S"'if msj\\n'"
p15
sS'__str__'
p16
S"<method-wrapper '__str__' of exceptions.SyntaxError object>"
p17
sS'__reduce__'
p18
S'<built-in method __reduce__ of exceptions.SyntaxError object>'
p19
sS'__dict__'
p20
S'{}'
p21
sS'__sizeof__'
p22
S'<built-in method __sizeof__ of exceptions.SyntaxError object>'
p23
sS'__init__'
p24
S"<method-wrapper '__init__' of exceptions.SyntaxError object>"
p25
sS'__setattr__'
p26
S"<method-wrapper '__setattr__' of exceptions.SyntaxError object>"
p27
sS'__reduce_ex__'
p28
S'<built-in method __reduce_ex__ of exceptions.SyntaxError object>'
p29
sS'__new__'
p30
S'<built-in method __new__ of type object>'
p31
sS'__format__'
p32
S'<built-in method __format__ of exceptions.SyntaxError object>'
p33
sS'__class__'
p34
S"<type 'exceptions.SyntaxError'>"
p35
sS'filename'
p36
S"'/home/daniel/Descargas/web2py/applications/SIGESC/views/default/estudiantes.html'"
p37
sS'lineno'
p38
S'47'
p39
sS'msg'
p40
S"'invalid syntax'"
p41
sS'__doc__'
p42
S"'Invalid syntax.'"
p43
sS'__getitem__'
p44
S"<method-wrapper '__getitem__' of exceptions.SyntaxError object>"
p45
sS'__setstate__'
p46
S'<built-in method __setstate__ of exceptions.SyntaxError object>'
p47
sS'__getattribute__'
p48
S"<method-wrapper '__getattribute__' of exceptions.SyntaxError object>"
p49
sS'print_file_and_line'
p50
S'None'
p51
sS'args'
p52
S"('invalid syntax', ('/home/daniel/Descargas/web2py/applications/SIGESC/views/default/estudiantes.html', 47, 7, 'if msj\\n'))"
p53
sS'__subclasshook__'
p54
S'<built-in method __subclasshook__ of type object>'
p55
sS'offset'
p56
S'7'
sS'__unicode__'
p57
S'<built-in method __unicode__ of exceptions.SyntaxError object>'
p58
sS'__delattr__'
p59
S"<method-wrapper '__delattr__' of exceptions.SyntaxError object>"
p60
sS'__repr__'
p61
S"<method-wrapper '__repr__' of exceptions.SyntaxError object>"
p62
sS'__hash__'
p63
S"<method-wrapper '__hash__' of exceptions.SyntaxError object>"
p64
ssS'evalue'
p65
S'invalid syntax (estudiantes.html, line 47)'
p66
sS'request'
p67
cgluon.html
XML_unpickle
p68
(S's\xffj\x00\x00<div><table><tr><td style="font-weight:bold;vertical-align:top;">ajax</td><td style="vertical-align:top;">:</td><td><div>False</div></td></tr><tr><td style="font-weight:bold;vertical-align:top;">application</td><td style="vertical-align:top;">:</td><td><div>SIGESC</div></td></tr><tr><td style="font-weight:bold;vertical-align:top;">args</td><td style="vertical-align:top;">:</td><td><div><table></table></div></td></tr><tr><td style="font-weight:bold;vertical-align:top;">cid</td><td style="vertical-align:top;">:</td><td><div>None</div></td></tr><tr><td style="font-weight:bold;vertical-align:top;">client</td><td style="vertical-align:top;">:</td><td><div>127.0.0.1</div></td></tr><tr><td style="font-weight:bold;vertical-align:top;">controller</td><td style="vertical-align:top;">:</td><td><div>default</div></td></tr><tr><td style="font-weight:bold;vertical-align:top;">cookies</td><td style="vertical-align:top;">:</td><td><div><table><tr><td style="font-weight:bold;vertical-align:top;">csrftoken</td><td style="vertical-align:top;">:</td><td><div>tkT4bspZcfXmsuzVTK3aTyutL844l4r5<table><tr><td style="font-weight:bold;vertical-align:top;">comment</td><td style="vertical-align:top;">:</td><td><div></div></td></tr><tr><td style="font-weight:bold;vertical-align:top;">domain</td><td style="vertical-align:top;">:</td><td><div></div></td></tr><tr><td style="font-weight:bold;vertical-align:top;">expires</td><td style="vertical-align:top;">:</td><td><div></div></td></tr><tr><td style="font-weight:bold;vertical-align:top;">httponly</td><td style="vertical-align:top;">:</td><td><div></div></td></tr><tr><td style="font-weight:bold;vertical-align:top;">max-age</td><td style="vertical-align:top;">:</td><td><div></div></td></tr><tr><td style="font-weight:bold;vertical-align:top;">path</td><td style="vertical-align:top;">:</td><td><div></div></td></tr><tr><td style="font-weight:bold;vertical-align:top;">secure</td><td style="vertical-align:top;">:</td><td><div></div></td></tr><tr><td style="font-weight:bold;vertical-align:top;">version</td><td style="vertical-align:top;">:</td><td><div></div></td></tr></table></div></td></tr><tr><td style="font-weight:bold;vertical-align:top;">session_id_admin</td><td style="vertical-align:top;">:</td><td><div>127.0.0.1-716b458d-59f6-4739-9609-51099717d0d7<table><tr><td style="font-weight:bold;vertical-align:top;">comment</td><td style="vertical-align:top;">:</td><td><div></div></td></tr><tr><td style="font-weight:bold;vertical-align:top;">domain</td><td style="vertical-align:top;">:</td><td><div></div></td></tr><tr><td style="font-weight:bold;vertical-align:top;">expires</td><td style="vertical-align:top;">:</td><td><div></div></td></tr><tr><td style="font-weight:bold;vertical-align:top;">httponly</td><td style="vertical-align:top;">:</td><td><div></div></td></tr><tr><td style="font-weight:bold;vertical-align:top;">max-age</td><td style="vertical-align:top;">:</td><td><div></div></td></tr><tr><td style="font-weight:bold;vertical-align:top;">path</td><td style="vertical-align:top;">:</td><td><div></div></td></tr><tr><td style="font-weight:bold;vertical-align:top;">secure</td><td style="vertical-align:top;">:</td><td><div></div></td></tr><tr><td style="font-weight:bold;vertical-align:top;">version</td><td style="vertical-align:top;">:</td><td><div></div></td></tr></table></div></td></tr><tr><td style="font-weight:bold;vertical-align:top;">session_id_blog</td><td style="vertical-align:top;">:</td><td><div>127.0.0.1-84d07dad-9969-4e09-9ff2-918fc09fd6c8<table><tr><td style="font-weight:bold;vertical-align:top;">comment</td><td style="vertical-align:top;">:</td><td><div></div></td></tr><tr><td style="font-weight:bold;vertical-align:top;">domain</td><td style="vertical-align:top;">:</td><td><div></div></td></tr><tr><td style="font-weight:bold;vertical-align:top;">expires</td><td style="vertical-align:top;">:</td><td><div></div></td></tr><tr><td style="font-weight:bold;vertical-align:top;">httponly</td><td style="vertical-align:top;">:</td><td><div></div></td></tr><tr><td style="font-weight:bold;vertical-align:top;">max-age</td><td style="vertical-align:top;">:</td><td><div></div></td></tr><tr><td style="font-weight:bold;vertical-align:top;">path</td><td style="vertical-align:top;">:</td><td><div></div></td></tr><tr><td style="font-weight:bold;vertical-align:top;">secure</td><td style="vertical-align:top;">:</td><td><div></div></td></tr><tr><td style="font-weight:bold;vertical-align:top;">version</td><td style="vertical-align:top;">:</td><td><div></div></td></tr></table></div></td></tr><tr><td style="font-weight:bold;vertical-align:top;">session_id_sigesc</td><td style="vertical-align:top;">:</td><td><div>127.0.0.1-5f0fa0dd-0cd2-4736-b634-d56ee227fe47<table><tr><td style="font-weight:bold;vertical-align:top;">comment</td><td style="vertical-align:top;">:</td><td><div></div></td></tr><tr><td style="font-weight:bold;vertical-align:top;">domain</td><td style="vertical-align:top;">:</td><td><div></div></td></tr><tr><td style="font-weight:bold;vertical-align:top;">expires</td><td style="vertical-align:top;">:</td><td><div></div></td></tr><tr><td style="font-weight:bold;vertical-align:top;">httponly</td><td style="vertical-align:top;">:</td><td><div></div></td></tr><tr><td style="font-weight:bold;vertical-align:top;">max-age</td><td style="vertical-align:top;">:</td><td><div></div></td></tr><tr><td style="font-weight:bold;vertical-align:top;">path</td><td style="vertical-align:top;">:</td><td><div></div></td></tr><tr><td style="font-weight:bold;vertical-align:top;">secure</td><td style="vertical-align:top;">:</td><td><div></div></td></tr><tr><td style="font-weight:bold;vertical-align:top;">version</td><td style="vertical-align:top;">:</td><td><div></div></td></tr></table></div></td></tr><tr><td style="font-weight:bold;vertical-align:top;">session_id_welcome</td><td style="vertical-align:top;">:</td><td><div>127.0.0.1-0b6d981b-a357-4329-964b-9fe51383f0eb<table><tr><td style="font-weight:bold;vertical-align:top;">comment</td><td style="vertical-align:top;">:</td><td><div></div></td></tr><tr><td style="font-weight:bold;vertical-align:top;">domain</td><td style="vertical-align:top;">:</td><td><div></div></td></tr><tr><td style="font-weight:bold;vertical-align:top;">expires</td><td style="vertical-align:top;">:</td><td><div></div></td></tr><tr><td style="font-weight:bold;vertical-align:top;">httponly</td><td style="vertical-align:top;">:</td><td><div></div></td></tr><tr><td style="font-weight:bold;vertical-align:top;">max-age</td><td style="vertical-align:top;">:</td><td><div></div></td></tr><tr><td style="font-weight:bold;vertical-align:top;">path</td><td style="vertical-align:top;">:</td><td><div></div></td></tr><tr><td style="font-weight:bold;vertical-align:top;">secure</td><td style="vertical-align:top;">:</td><td><div></div></td></tr><tr><td style="font-weight:bold;vertical-align:top;">version</td><td style="vertical-align:top;">:</td><td><div></div></td></tr></table></div></td></tr><tr><td style="font-weight:bold;vertical-align:top;">sessionid</td><td style="vertical-align:top;">:</td><td><div>r7rboscl2ack9j46mqeaa1r6w1g352dw<table><tr><td style="font-weight:bold;vertical-align:top;">comment</td><td style="vertical-align:top;">:</td><td><div></div></td></tr><tr><td style="font-weight:bold;vertical-align:top;">domain</td><td style="vertical-align:top;">:</td><td><div></div></td></tr><tr><td style="font-weight:bold;vertical-align:top;">expires</td><td style="vertical-align:top;">:</td><td><div></div></td></tr><tr><td style="font-weight:bold;vertical-align:top;">httponly</td><td style="vertical-align:top;">:</td><td><div></div></td></tr><tr><td style="font-weight:bold;vertical-align:top;">max-age</td><td style="vertical-align:top;">:</td><td><div></div></td></tr><tr><td style="font-weight:bold;vertical-align:top;">path</td><td style="vertical-align:top;">:</td><td><div></div></td></tr><tr><td style="font-weight:bold;vertical-align:top;">secure</td><td style="vertical-align:top;">:</td><td><div></div></td></tr><tr><td style="font-weight:bold;vertical-align:top;">version</td><td style="vertical-align:top;">:</td><td><div></div></td></tr></table></div></td></tr></table></div></td></tr><tr><td style="font-weight:bold;vertical-align:top;">env</td><td style="vertical-align:top;">:</td><td><div><table><tr><td style="font-weight:bold;vertical-align:top;">HTTP_ACCEPT</td><td style="vertical-align:top;">:</td><td><div>text/html,application/xhtml+xml,application/xml;q=0.9,*/*;q=0.8</div></td></tr><tr><td style="font-weight:bold;vertical-align:top;">HTTP_ACCEPT_ENCODING</td><td style="vertical-align:top;">:</td><td><div>gzip, deflate</div></td></tr><tr><td style="font-weight:bold;vertical-align:top;">HTTP_ACCEPT_LANGUAGE</td><td style="vertical-align:top;">:</td><td><div>es-ES,es;q=0.8,en-US;q=0.5,en;q=0.3</div></td></tr><tr><td style="font-weight:bold;vertical-align:top;">HTTP_CONNECTION</td><td style="vertical-align:top;">:</td><td><div>keep-alive</div></td></tr><tr><td style="font-weight:bold;vertical-align:top;">HTTP_COOKIE</td><td style="vertical-align:top;">:</td><td><div>csrftoken=tkT4bspZcfXmsuzVTK3aTyutL844l4r5; sessionid=r7rboscl2ack9j46mqeaa1r6w1g352dw; session_id_welcome=127.0.0.1-0b6d981b-a357-4329-964b-9fe51383f0eb; session_id_admin=127.0.0.1-716b458d-59f6-4739-9609-51099717d0d7; session_id_blog=127.0.0.1-84d07dad-9969-4e09-9ff2-918fc09fd6c8; session_id_sigesc=127.0.0.1-5f0fa0dd-0cd2-4736-b634-d56ee227fe47</div></td></tr><tr><td style="font-weight:bold;vertical-align:top;">HTTP_HOST</td><td style="vertical-align:top;">:</td><td><div>127.0.0.1:8000</div></td></tr><tr><td style="font-weight:bold;vertical-align:top;">HTTP_REFERER</td><td style="vertical-align:top;">:</td><td><div>http://127.0.0.1:8000/SIGESC/default/index</div></td></tr><tr><td style="font-weight:bold;vertical-align:top;">HTTP_USER_AGENT</td><td style="vertical-align:top;">:</td><td><div>Mozilla/5.0 (X11; Ubuntu; Linux x86_64; rv:35.0) Gecko/20100101 Firefox/35.0</div></td></tr><tr><td style="font-weight:bold;vertical-align:top;">PATH_INFO</td><td style="vertical-align:top;">:</td><td><div>/SIGESC/default/estudiantes</div></td></tr><tr><td style="font-weight:bold;vertical-align:top;">QUERY_STRING</td><td style="vertical-align:top;">:</td><td><div></div></td></tr><tr><td style="font-weight:bold;vertical-align:top;">REMOTE_ADDR</td><td style="vertical-align:top;">:</td><td><div>127.0.0.1</div></td></tr><tr><td style="font-weight:bold;vertical-align:top;">REMOTE_PORT</td><td style="vertical-align:top;">:</td><td><div>60307</div></td></tr><tr><td style="font-weight:bold;vertical-align:top;">REQUEST_METHOD</td><td style="vertical-align:top;">:</td><td><div>GET</div></td></tr><tr><td style="font-weight:bold;vertical-align:top;">SCRIPT_NAME</td><td style="vertical-align:top;">:</td><td><div></div></td></tr><tr><td style="font-weight:bold;vertical-align:top;">SERVER_NAME</td><td style="vertical-align:top;">:</td><td><div>Redencion</div></td></tr><tr><td style="font-weight:bold;vertical-align:top;">SERVER_PORT</td><td style="vertical-align:top;">:</td><td><div>8000</div></td></tr><tr><td style="font-weight:bold;vertical-align:top;">SERVER_PROTOCOL</td><td style="vertical-align:top;">:</td><td><div>HTTP/1.1</div></td></tr><tr><td style="font-weight:bold;vertical-align:top;">SERVER_SOFTWARE</td><td style="vertical-align:top;">:</td><td><div>Rocket 1.2.6</div></td></tr><tr><td style="font-weight:bold;vertical-align:top;">app_folders</td><td style="vertical-align:top;">:</td><td><div>set([&#x27;/home/daniel/Descargas/web2py/applications/admin/&#x27;, &#x27;/home/daniel/Descargas/web2py/applications/SIGESC/&#x27;, &#x27;/home/daniel/Descargas/web2py/applications/blog/&#x27;, &#x27;/home/daniel/Descargas/web2py/applications/welcome/&#x27;])</div></td></tr><tr><td style="font-weight:bold;vertical-align:top;">applications_parent</td><td style="vertical-align:top;">:</td><td><div>/home/daniel/Descargas/web2py</div></td></tr><tr><td style="font-weight:bold;vertical-align:top;">cmd_args</td><td style="vertical-align:top;">:</td><td><div><table></table></div></td></tr><tr><td style="font-weight:bold;vertical-align:top;">cmd_options</td><td style="vertical-align:top;">:</td><td><div>&lt;Values at 0x1844bd8: {&#x27;verbose&#x27;: False, &#x27;ip&#x27;: &#x27;127.0.0.1&#x27;, &#x27;debuglevel&#x27;: 30, &#x27;with_scheduler&#x27;: False, &#x27;ips&#x27;: [&#x27;127.0.1.1&#x27;], &#x27;shutdown_timeout&#x27;: 5, &#x27;taskbar&#x27;: False, &#x27;with_coverage&#x27;: False, &#x27;scheduler_groups&#x27;: None, &#x27;port&#x27;: 8000, &#x27;maxthreads&#x27;: None, &#x27;softcron&#x27;: False, &#x27;server_name&#x27;: &#x27;Redencion&#x27;, &#x27;bpython&#x27;: False, &#x27;nogui&#x27;: True, &#x27;pid_filename&#x27;: &#x27;httpserver.pid&#x27;, &#x27;extcron&#x27;: False, &#x27;runcron&#x27;: False, &#x27;run_system_tests&#x27;: False, &#x27;test&#x27;: None, &#x27;folder&#x27;: &#x27;/home/daniel/Descargas/web2py&#x27;, &#x27;config&#x27;: &#x27;&#x27;, &#x27;minthreads&#x27;: None, &#x27;shell&#x27;: None, &#x27;run&#x27;: &#x27;&#x27;, &#x27;log_filename&#x27;: &#x27;httpserver.log&#x27;, &#x27;profiler_dir&#x27;: None, &#x27;args&#x27;: [&#x27;&#x27;], &#x27;socket_timeout&#x27;: 5, &#x27;ssl_ca_certificate&#x27;: None, &#x27;scheduler&#x27;: None, &#x27;interfaces&#x27;: None, &#x27;ssl_private_key&#x27;: &#x27;&#x27;, &#x27;gae&#x27;: None, &#x27;password&#x27;: &#x27;1234&#x27;, &#x27;request_queue_size&#x27;: 5, &#x27;ssl_certificate&#x27;: &#x27;&#x27;, &#x27;cronjob&#x27;: False, &#x27;numthreads&#x27;: None, &#x27;quiet&#x27;: False, &#x27;import_models&#x27;: False, &#x27;timeout&#x27;: 10, &#x27;plain&#x27;: False, &#x27;nobanner&#x27;: False}&gt;</div></td></tr><tr><td style="font-weight:bold;vertical-align:top;">db_sessions</td><td style="vertical-align:top;">:</td><td><div>set([])</div></td></tr><tr><td style="font-weight:bold;vertical-align:top;">debugging</td><td style="vertical-align:top;">:</td><td><div>False</div></td></tr><tr><td style="font-weight:bold;vertical-align:top;">gluon_parent</td><td style="vertical-align:top;">:</td><td><div>/home/daniel/Descargas/web2py</div></td></tr><tr><td style="font-weight:bold;vertical-align:top;">http_accept</td><td style="vertical-align:top;">:</td><td><div>text/html,application/xhtml+xml,application/xml;q=0.9,*/*;q=0.8</div></td></tr><tr><td style="font-weight:bold;vertical-align:top;">http_accept_encoding</td><td style="vertical-align:top;">:</td><td><div>gzip, deflate</div></td></tr><tr><td style="font-weight:bold;vertical-align:top;">http_accept_language</td><td style="vertical-align:top;">:</td><td><div>es-ES,es;q=0.8,en-US;q=0.5,en;q=0.3</div></td></tr><tr><td style="font-weight:bold;vertical-align:top;">http_connection</td><td style="vertical-align:top;">:</td><td><div>keep-alive</div></td></tr><tr><td style="font-weight:bold;vertical-align:top;">http_cookie</td><td style="vertical-align:top;">:</td><td><div>csrftoken=tkT4bspZcfXmsuzVTK3aTyutL844l4r5; sessionid=r7rboscl2ack9j46mqeaa1r6w1g352dw; session_id_welcome=127.0.0.1-0b6d981b-a357-4329-964b-9fe51383f0eb; session_id_admin=127.0.0.1-716b458d-59f6-4739-9609-51099717d0d7; session_id_blog=127.0.0.1-84d07dad-9969-4e09-9ff2-918fc09fd6c8; session_id_sigesc=127.0.0.1-5f0fa0dd-0cd2-4736-b634-d56ee227fe47</div></td></tr><tr><td style="font-weight:bold;vertical-align:top;">http_host</td><td style="vertical-align:top;">:</td><td><div>127.0.0.1:8000</div></td></tr><tr><td style="font-weight:bold;vertical-align:top;">http_referer</td><td style="vertical-align:top;">:</td><td><div>http://127.0.0.1:8000/SIGESC/default/index</div></td></tr><tr><td style="font-weight:bold;vertical-align:top;">http_user_agent</td><td style="vertical-align:top;">:</td><td><div>Mozilla/5.0 (X11; Ubuntu; Linux x86_64; rv:35.0) Gecko/20100101 Firefox/35.0</div></td></tr><tr><td style="font-weight:bold;vertical-align:top;">is_jython</td><td style="vertical-align:top;">:</td><td><div>False</div></td></tr><tr><td style="font-weight:bold;vertical-align:top;">is_pypy</td><td style="vertical-align:top;">:</td><td><div>False</div></td></tr><tr><td style="font-weight:bold;vertical-align:top;">is_source</td><td style="vertical-align:top;">:</td><td><div>True</div></td></tr><tr><td style="font-weight:bold;vertical-align:top;">local_hosts</td><td style="vertical-align:top;">:</td><td><div><table><tr><td><div>Redencion</div></td></tr><tr><td><div>::1</div></td></tr><tr><td><div>127.0.1.1</div></td></tr><tr><td><div>::ffff:127.0.0.1</div></td></tr><tr><td><div>127.0.0.1</div></td></tr></table></div></td></tr><tr><td style="font-weight:bold;vertical-align:top;">path_info</td><td style="vertical-align:top;">:</td><td><div>/SIGESC/default/estudiantes</div></td></tr><tr><td style="font-weight:bold;vertical-align:top;">query_string</td><td style="vertical-align:top;">:</td><td><div></div></td></tr><tr><td style="font-weight:bold;vertical-align:top;">remote_addr</td><td style="vertical-align:top;">:</td><td><div>127.0.0.1</div></td></tr><tr><td style="font-weight:bold;vertical-align:top;">remote_port</td><td style="vertical-align:top;">:</td><td><div>60307</div></td></tr><tr><td style="font-weight:bold;vertical-align:top;">request_method</td><td style="vertical-align:top;">:</td><td><div>GET</div></td></tr><tr><td style="font-weight:bold;vertical-align:top;">request_uri</td><td style="vertical-align:top;">:</td><td><div>/SIGESC/default/estudiantes</div></td></tr><tr><td style="font-weight:bold;vertical-align:top;">script_name</td><td style="vertical-align:top;">:</td><td><div></div></td></tr><tr><td style="font-weight:bold;vertical-align:top;">server_name</td><td style="vertical-align:top;">:</td><td><div>Redencion</div></td></tr><tr><td style="font-weight:bold;vertical-align:top;">server_port</td><td style="vertical-align:top;">:</td><td><div>8000</div></td></tr><tr><td style="font-weight:bold;vertical-align:top;">server_protocol</td><td style="vertical-align:top;">:</td><td><div>HTTP/1.1</div></td></tr><tr><td style="font-weight:bold;vertical-align:top;">server_software</td><td style="vertical-align:top;">:</td><td><div>Rocket 1.2.6</div></td></tr><tr><td style="font-weight:bold;vertical-align:top;">web2py_path</td><td style="vertical-align:top;">:</td><td><div>/home/daniel/Descargas/web2py</div></td></tr><tr><td style="font-weight:bold;vertical-align:top;">web2py_version</td><td style="vertical-align:top;">:</td><td><div>2.9.12-stable+timestamp.2015.01.17.06.11.03</div></td></tr><tr><td style="font-weight:bold;vertical-align:top;">wsgi.errors</td><td style="vertical-align:top;">:</td><td><div>&lt;open file &#x27;&lt;stderr&gt;&#x27;, mode &#x27;w&#x27; at 0x7f0a811c2270&gt;</div></td></tr><tr><td style="font-weight:bold;vertical-align:top;">wsgi.file_wrapper</td><td style="vertical-align:top;">:</td><td><div>&lt;class wsgiref.util.FileWrapper at 0x179ef58&gt;</div></td></tr><tr><td style="font-weight:bold;vertical-align:top;">wsgi.input</td><td style="vertical-align:top;">:</td><td><div>&lt;socket._fileobject object at 0x7f0a785bf6d0&gt;</div></td></tr><tr><td style="font-weight:bold;vertical-align:top;">wsgi.multiprocess</td><td style="vertical-align:top;">:</td><td><div>False</div></td></tr><tr><td style="font-weight:bold;vertical-align:top;">wsgi.multithread</td><td style="vertical-align:top;">:</td><td><div>True</div></td></tr><tr><td style="font-weight:bold;vertical-align:top;">wsgi.run_once</td><td style="vertical-align:top;">:</td><td><div>False</div></td></tr><tr><td style="font-weight:bold;vertical-align:top;">wsgi.url_scheme</td><td style="vertical-align:top;">:</td><td><div>http</div></td></tr><tr><td style="font-weight:bold;vertical-align:top;">wsgi.version</td><td style="vertical-align:top;">:</td><td><div><table><tr><td><div>1</div></td></tr><tr><td><div>0</div></td></tr></table></div></td></tr><tr><td style="font-weight:bold;vertical-align:top;">wsgi_errors</td><td style="vertical-align:top;">:</td><td><div>&lt;open file &#x27;&lt;stderr&gt;&#x27;, mode &#x27;w&#x27; at 0x7f0a811c2270&gt;</div></td></tr><tr><td style="font-weight:bold;vertical-align:top;">wsgi_file_wrapper</td><td style="vertical-align:top;">:</td><td><div>&lt;class wsgiref.util.FileWrapper at 0x179ef58&gt;</div></td></tr><tr><td style="font-weight:bold;vertical-align:top;">wsgi_input</td><td style="vertical-align:top;">:</td><td><div>&lt;socket._fileobject object at 0x7f0a785bf6d0&gt;</div></td></tr><tr><td style="font-weight:bold;vertical-align:top;">wsgi_multiprocess</td><td style="vertical-align:top;">:</td><td><div>False</div></td></tr><tr><td style="font-weight:bold;vertical-align:top;">wsgi_multithread</td><td style="vertical-align:top;">:</td><td><div>True</div></td></tr><tr><td style="font-weight:bold;vertical-align:top;">wsgi_run_once</td><td style="vertical-align:top;">:</td><td><div>False</div></td></tr><tr><td style="font-weight:bold;vertical-align:top;">wsgi_url_scheme</td><td style="vertical-align:top;">:</td><td><div>http</div></td></tr><tr><td style="font-weight:bold;vertical-align:top;">wsgi_version</td><td style="vertical-align:top;">:</td><td><div><table><tr><td><div>1</div></td></tr><tr><td><div>0</div></td></tr></table></div></td></tr></table></div></td></tr><tr><td style="font-weight:bold;vertical-align:top;">extension</td><td style="vertical-align:top;">:</td><td><div>html</div></td></tr><tr><td style="font-weight:bold;vertical-align:top;">folder</td><td style="vertical-align:top;">:</td><td><div>/home/daniel/Descargas/web2py/applications/SIGESC/</div></td></tr><tr><td style="font-weight:bold;vertical-align:top;">function</td><td style="vertical-align:top;">:</td><td><div>estudiantes</div></td></tr><tr><td style="font-weight:bold;vertical-align:top;">global_settings</td><td style="vertical-align:top;">:</td><td><div><table><tr><td style="font-weight:bold;vertical-align:top;">app_folders</td><td style="vertical-align:top;">:</td><td><div>set([&#x27;/home/daniel/Descargas/web2py/applications/admin/&#x27;, &#x27;/home/daniel/Descargas/web2py/applications/SIGESC/&#x27;, &#x27;/home/daniel/Descargas/web2py/applications/blog/&#x27;, &#x27;/home/daniel/Descargas/web2py/applications/welcome/&#x27;])</div></td></tr><tr><td style="font-weight:bold;vertical-align:top;">applications_parent</td><td style="vertical-align:top;">:</td><td><div>/home/daniel/Descargas/web2py</div></td></tr><tr><td style="font-weight:bold;vertical-align:top;">cmd_args</td><td style="vertical-align:top;">:</td><td><div><table></table></div></td></tr><tr><td style="font-weight:bold;vertical-align:top;">cmd_options</td><td style="vertical-align:top;">:</td><td><div>&lt;Values at 0x1844bd8: {&#x27;verbose&#x27;: False, &#x27;ip&#x27;: &#x27;127.0.0.1&#x27;, &#x27;debuglevel&#x27;: 30, &#x27;with_scheduler&#x27;: False, &#x27;ips&#x27;: [&#x27;127.0.1.1&#x27;], &#x27;shutdown_timeout&#x27;: 5, &#x27;taskbar&#x27;: False, &#x27;with_coverage&#x27;: False, &#x27;scheduler_groups&#x27;: None, &#x27;port&#x27;: 8000, &#x27;maxthreads&#x27;: None, &#x27;softcron&#x27;: False, &#x27;server_name&#x27;: &#x27;Redencion&#x27;, &#x27;bpython&#x27;: False, &#x27;nogui&#x27;: True, &#x27;pid_filename&#x27;: &#x27;httpserver.pid&#x27;, &#x27;extcron&#x27;: False, &#x27;runcron&#x27;: False, &#x27;run_system_tests&#x27;: False, &#x27;test&#x27;: None, &#x27;folder&#x27;: &#x27;/home/daniel/Descargas/web2py&#x27;, &#x27;config&#x27;: &#x27;&#x27;, &#x27;minthreads&#x27;: None, &#x27;shell&#x27;: None, &#x27;run&#x27;: &#x27;&#x27;, &#x27;log_filename&#x27;: &#x27;httpserver.log&#x27;, &#x27;profiler_dir&#x27;: None, &#x27;args&#x27;: [&#x27;&#x27;], &#x27;socket_timeout&#x27;: 5, &#x27;ssl_ca_certificate&#x27;: None, &#x27;scheduler&#x27;: None, &#x27;interfaces&#x27;: None, &#x27;ssl_private_key&#x27;: &#x27;&#x27;, &#x27;gae&#x27;: None, &#x27;password&#x27;: &#x27;1234&#x27;, &#x27;request_queue_size&#x27;: 5, &#x27;ssl_certificate&#x27;: &#x27;&#x27;, &#x27;cronjob&#x27;: False, &#x27;numthreads&#x27;: None, &#x27;quiet&#x27;: False, &#x27;import_models&#x27;: False, &#x27;timeout&#x27;: 10, &#x27;plain&#x27;: False, &#x27;nobanner&#x27;: False}&gt;</div></td></tr><tr><td style="font-weight:bold;vertical-align:top;">db_sessions</td><td style="vertical-align:top;">:</td><td><div>set([])</div></td></tr><tr><td style="font-weight:bold;vertical-align:top;">debugging</td><td style="vertical-align:top;">:</td><td><div>False</div></td></tr><tr><td style="font-weight:bold;vertical-align:top;">gluon_parent</td><td style="vertical-align:top;">:</td><td><div>/home/daniel/Descargas/web2py</div></td></tr><tr><td style="font-weight:bold;vertical-align:top;">is_jython</td><td style="vertical-align:top;">:</td><td><div>False</div></td></tr><tr><td style="font-weight:bold;vertical-align:top;">is_pypy</td><td style="vertical-align:top;">:</td><td><div>False</div></td></tr><tr><td style="font-weight:bold;vertical-align:top;">is_source</td><td style="vertical-align:top;">:</td><td><div>True</div></td></tr><tr><td style="font-weight:bold;vertical-align:top;">local_hosts</td><td style="vertical-align:top;">:</td><td><div><table><tr><td><div>Redencion</div></td></tr><tr><td><div>::1</div></td></tr><tr><td><div>127.0.1.1</div></td></tr><tr><td><div>::ffff:127.0.0.1</div></td></tr><tr><td><div>127.0.0.1</div></td></tr></table></div></td></tr><tr><td style="font-weight:bold;vertical-align:top;">web2py_version</td><td style="vertical-align:top;">:</td><td><div>2.9.12-stable+timestamp.2015.01.17.06.11.03</div></td></tr></table></div></td></tr><tr><td style="font-weight:bold;vertical-align:top;">is_https</td><td style="vertical-align:top;">:</td><td><div>False</div></td></tr><tr><td style="font-weight:bold;vertical-align:top;">is_local</td><td style="vertical-align:top;">:</td><td><div>True</div></td></tr><tr><td style="font-weight:bold;vertical-align:top;">is_restful</td><td style="vertical-align:top;">:</td><td><div>False</div></td></tr><tr><td style="font-weight:bold;vertical-align:top;">is_sheduler</td><td style="vertical-align:top;">:</td><td><div>None</div></td></tr><tr><td style="font-weight:bold;vertical-align:top;">is_shell</td><td style="vertical-align:top;">:</td><td><div>None</div></td></tr><tr><td style="font-weight:bold;vertical-align:top;">now</td><td style="vertical-align:top;">:</td><td><div>datetime.datetime(2015, 2, 15, 1, 9, 47, 393519)</div></td></tr><tr><td style="font-weight:bold;vertical-align:top;">raw_args</td><td style="vertical-align:top;">:</td><td><div></div></td></tr><tr><td style="font-weight:bold;vertical-align:top;">raw_extension</td><td style="vertical-align:top;">:</td><td><div>None</div></td></tr><tr><td style="font-weight:bold;vertical-align:top;">url</td><td style="vertical-align:top;">:</td><td><div>/SIGESC/default/estudiantes</div></td></tr><tr><td style="font-weight:bold;vertical-align:top;">utcnow</td><td style="vertical-align:top;">:</td><td><div>datetime.datetime(2015, 2, 15, 5, 39, 47, 393573)</div></td></tr><tr><td style="font-weight:bold;vertical-align:top;">uuid</td><td style="vertical-align:top;">:</td><td><div>SIGESC/127.0.0.1.2015-02-15.01-09-47.76daca3a-72ea-473f-8296-247a6179a303</div></td></tr><tr><td style="font-weight:bold;vertical-align:top;">wsgi</td><td style="vertical-align:top;">:</td><td><div>&lt;gluon.main.LazyWSGI object at 0x7f0a789bba10&gt;</div></td></tr></table></div>'
tRp69
sS'frames'
p70
(lp71
(dp72
S'file'
p73
S'/home/daniel/Descargas/web2py/gluon/restricted.py'
p74
sS'dump'
p75
(dp76
S'code'
p77
S'r"response.write(\'<!--{% load staticfiles %}-->\\n<...iv>\\n</div>\\n</footer>\\n</body>\\n\', escape=False)"'
p78
sS'layer'
p79
S"'/home/daniel/Descargas/web2py/applications/SIGESC/views/default/estudiantes.html'"
p80
sS'global compile2'
p81
S'<function compile2>'
p82
sS'ccode'
p83
S'undefined'
p84
ssS'lnum'
p85
I223
sS'lines'
p86
(dp87
I224
S'        exec ccode in environment'
p88
sI225
S'    except HTTP:'
p89
sI226
S'        raise'
p90
sI227
S'    except RestrictedError:'
p91
sI218
S"    environment['__name__'] = '__restricted__'"
p92
sI219
S'    try:'
p93
sI220
S'        if isinstance(code, types.CodeType):'
p94
sI221
S'            ccode = code'
p95
sI222
S'        else:'
p96
sI223
S'            ccode = compile2(code, layer)'
p97
ssS'call'
p98
S'(code=r"response.write(\'<!--{% load staticfiles %}-->\\n<...iv>\\n</div>\\n</footer>\\n</body>\\n\', escape=False)", environment={\'A\': <class \'gluon.html.A\'>, \'ANY_OF\': <class \'gluon.validators.ANY_OF\'>, \'ASSIGNJS\': <function ASSIGNJS>, \'Auth\': <class \'gluon.tools.Auth\'>, \'B\': <class \'gluon.html.B\'>, \'BEAUTIFY\': <class \'gluon.html.BEAUTIFY\'>, \'BODY\': <class \'gluon.html.BODY\'>, \'BR\': <class \'gluon.html.BR\'>, \'BUTTON\': <class \'gluon.html.BUTTON\'>, \'CAT\': <class \'gluon.html.CAT\'>, ...}, layer=\'/home/daniel/Descargas/web2py/applications/SIGESC/views/default/estudiantes.html\')'
p99
sS'func'
p100
S'restricted'
p101
sa(dp102
g73
S'/home/daniel/Descargas/web2py/gluon/restricted.py'
p103
sg75
(dp104
S'builtincompile'
p105
S'<built-in function compile>'
p106
sS'code'
p107
S'r"response.write(\'<!--{% load staticfiles %}-->\\n<...iv>\\n</div>\\n</footer>\\n</body>\\n\', escape=False)"'
p108
sS'code.rstrip'
p109
S'<built-in method rstrip of str object>'
p110
sS').replace'
p111
g84
sS'layer'
p112
S"'/home/daniel/Descargas/web2py/applications/SIGESC/views/default/estudiantes.html'"
p113
ssg85
I206
sg86
(dp114
I201
S'def compile2(code, layer):'
p115
sI202
S'    """'
p116
sI203
S"    The ``+'\\\\n'`` is necessary else compile fails when code ends in a comment."
p117
sI204
S'    """'
p118
sI205
S''
sI206
S"    return compile(code.rstrip().replace('\\r\\n', '\\n') + '\\n', layer, 'exec')"
p119
sI207
S''
sI208
S''
sI209
S"def restricted(code, environment=None, layer='Unknown'):"
p120
sI210
S'    """'
p121
ssg98
S'(code=r"response.write(\'<!--{% load staticfiles %}-->\\n<...iv>\\n</div>\\n</footer>\\n</body>\\n\', escape=False)", layer=\'/home/daniel/Descargas/web2py/applications/SIGESC/views/default/estudiantes.html\')'
p122
sg100
S'compile2'
p123
sasS'pyver'
p124
S'Python 2.7.3: /usr/bin/python (prefix: /usr)'
p125
sS'session'
p126
g68
(S'sY\x08\x00\x00<div><table><tr><td style="font-weight:bold;vertical-align:top;">auth</td><td style="vertical-align:top;">:</td><td><div><table><tr><td style="font-weight:bold;vertical-align:top;">expiration</td><td style="vertical-align:top;">:</td><td><div>3600</div></td></tr><tr><td style="font-weight:bold;vertical-align:top;">hmac_key</td><td style="vertical-align:top;">:</td><td><div>60ff3735-614d-41a1-a12a-2f3bb36a42e2</div></td></tr><tr><td style="font-weight:bold;vertical-align:top;">last_visit</td><td style="vertical-align:top;">:</td><td><div>datetime.datetime(2015, 2, 15, 1, 8, 37, 111434)</div></td></tr><tr><td style="font-weight:bold;vertical-align:top;">user</td><td style="vertical-align:top;">:</td><td><div><table><tr><td style="font-weight:bold;vertical-align:top;">email</td><td style="vertical-align:top;">:</td><td><div>meta@gmail.com</div></td></tr><tr><td style="font-weight:bold;vertical-align:top;">first_name</td><td style="vertical-align:top;">:</td><td><div>Daniel</div></td></tr><tr><td style="font-weight:bold;vertical-align:top;">id</td><td style="vertical-align:top;">:</td><td><div>1L</div></td></tr><tr><td style="font-weight:bold;vertical-align:top;">last_name</td><td style="vertical-align:top;">:</td><td><div>dsa</div></td></tr><tr><td style="font-weight:bold;vertical-align:top;">registration_id</td><td style="vertical-align:top;">:</td><td><div></div></td></tr><tr><td style="font-weight:bold;vertical-align:top;">registration_key</td><td style="vertical-align:top;">:</td><td><div></div></td></tr><tr><td style="font-weight:bold;vertical-align:top;">reset_password_key</td><td style="vertical-align:top;">:</td><td><div></div></td></tr></table></div></td></tr><tr><td style="font-weight:bold;vertical-align:top;">user_groups</td><td style="vertical-align:top;">:</td><td><div><table><tr><td style="font-weight:bold;vertical-align:top;">1</td><td style="vertical-align:top;">:</td><td><div>user_1</div></td></tr></table></div></td></tr></table></div></td></tr><tr><td style="font-weight:bold;vertical-align:top;">flash</td><td style="vertical-align:top;">:</td><td><div>None</div></td></tr></table></div>'
tRp127
sS'etype'
p128
S"<type 'exceptions.SyntaxError'>"
p129
sS'date'
p130
S'Sun Feb 15 01:09:47 2015'
p131
sS'response'
p132
g68
(S's\x81(\x00\x00<div><table><tr><td style="font-weight:bold;vertical-align:top;">body</td><td style="vertical-align:top;">:</td><td><div>&lt;cStringIO.StringO object at 0x7f0a78a0eb58&gt;</div></td></tr><tr><td style="font-weight:bold;vertical-align:top;">cookies</td><td style="vertical-align:top;">:</td><td><div><table><tr><td style="font-weight:bold;vertical-align:top;">session_id_sigesc</td><td style="vertical-align:top;">:</td><td><div>127.0.0.1-5f0fa0dd-0cd2-4736-b634-d56ee227fe47<table><tr><td style="font-weight:bold;vertical-align:top;">comment</td><td style="vertical-align:top;">:</td><td><div></div></td></tr><tr><td style="font-weight:bold;vertical-align:top;">domain</td><td style="vertical-align:top;">:</td><td><div></div></td></tr><tr><td style="font-weight:bold;vertical-align:top;">expires</td><td style="vertical-align:top;">:</td><td><div></div></td></tr><tr><td style="font-weight:bold;vertical-align:top;">httponly</td><td style="vertical-align:top;">:</td><td><div></div></td></tr><tr><td style="font-weight:bold;vertical-align:top;">max-age</td><td style="vertical-align:top;">:</td><td><div></div></td></tr><tr><td style="font-weight:bold;vertical-align:top;">path</td><td style="vertical-align:top;">:</td><td><div>/</div></td></tr><tr><td style="font-weight:bold;vertical-align:top;">secure</td><td style="vertical-align:top;">:</td><td><div></div></td></tr><tr><td style="font-weight:bold;vertical-align:top;">version</td><td style="vertical-align:top;">:</td><td><div></div></td></tr></table></div></td></tr></table></div></td></tr><tr><td style="font-weight:bold;vertical-align:top;">delimiters</td><td style="vertical-align:top;">:</td><td><div><table><tr><td><div>{{</div></td></tr><tr><td><div>}}</div></td></tr></table></div></td></tr><tr><td style="font-weight:bold;vertical-align:top;">files</td><td style="vertical-align:top;">:</td><td><div><table></table></div></td></tr><tr><td style="font-weight:bold;vertical-align:top;">flash</td><td style="vertical-align:top;">:</td><td><div></div></td></tr><tr><td style="font-weight:bold;vertical-align:top;">form_label_separator</td><td style="vertical-align:top;">:</td><td><div>: </div></td></tr><tr><td style="font-weight:bold;vertical-align:top;">formstyle</td><td style="vertical-align:top;">:</td><td><div>table3cols</div></td></tr><tr><td style="font-weight:bold;vertical-align:top;">generic_patterns</td><td style="vertical-align:top;">:</td><td><div><table><tr><td><div>*</div></td></tr></table></div></td></tr><tr><td style="font-weight:bold;vertical-align:top;">headers</td><td style="vertical-align:top;">:</td><td><div><table><tr><td style="font-weight:bold;vertical-align:top;">X-Powered-By</td><td style="vertical-align:top;">:</td><td><div>web2py</div></td></tr></table></div></td></tr><tr><td style="font-weight:bold;vertical-align:top;">menu</td><td style="vertical-align:top;">:</td><td><div><table><tr><td><div><table><tr><td><div>\xc3\x8dndice</div></td></tr><tr><td><div>False</div></td></tr><tr><td><div>/SIGESC/default/index</div></td></tr><tr><td><div><table></table></div></td></tr></table></div></td></tr><tr><td><div><table><tr><td><div>Estado</div></td></tr><tr><td><div>False</div></td></tr><tr><td><div>/SIGESC/default/estado_manage</div></td></tr><tr><td><div><table></table></div></td></tr></table></div></td></tr><tr><td><div><table><tr><td><div>Sede</div></td></tr><tr><td><div>False</div></td></tr><tr><td><div>/SIGESC/default/sede_manage</div></td></tr><tr><td><div><table></table></div></td></tr></table></div></td></tr><tr><td><div><table><tr><td><div>Comunidad</div></td></tr><tr><td><div>False</div></td></tr><tr><td><div>/SIGESC/default/comunidad_manage</div></td></tr><tr><td><div><table></table></div></td></tr></table></div></td></tr><tr><td><div><table><tr><td><div>Area</div></td></tr><tr><td><div>False</div></td></tr><tr><td><div>/SIGESC/default/area_manage</div></td></tr><tr><td><div><table></table></div></td></tr></table></div></td></tr><tr><td><div><table><tr><td><div>Sexo</div></td></tr><tr><td><div>False</div></td></tr><tr><td><div>/SIGESC/default/sexo_manage</div></td></tr><tr><td><div><table></table></div></td></tr></table></div></td></tr><tr><td><div><table><tr><td><div>Estudiante</div></td></tr><tr><td><div>False</div></td></tr><tr><td><div>/SIGESC/default/estudiante_manage</div></td></tr><tr><td><div><table></table></div></td></tr></table></div></td></tr><tr><td><div><table><tr><td><div>Proponente</div></td></tr><tr><td><div>False</div></td></tr><tr><td><div>/SIGESC/default/proponente_manage</div></td></tr><tr><td><div><table></table></div></td></tr></table></div></td></tr><tr><td><div><table><tr><td><div>Tutor</div></td></tr><tr><td><div>False</div></td></tr><tr><td><div>/SIGESC/default/tutor_manage</div></td></tr><tr><td><div><table></table></div></td></tr></table></div></td></tr><tr><td><div><table><tr><td><div>Proyecto</div></td></tr><tr><td><div>False</div></td></tr><tr><td><div>/SIGESC/default/proyecto_manage</div></td></tr><tr><td><div><table></table></div></td></tr></table></div></td></tr><tr><td><div><table><tr><td><div>Condicion</div></td></tr><tr><td><div>False</div></td></tr><tr><td><div>/SIGESC/default/condicion_manage</div></td></tr><tr><td><div><table></table></div></td></tr></table></div></td></tr><tr><td><div><table><tr><td><div>Caracterisicas</div></td></tr><tr><td><div>False</div></td></tr><tr><td><div>/SIGESC/default/caracterisicas_manage</div></td></tr><tr><td><div><table></table></div></td></tr></table></div></td></tr><tr><td><div><table><tr><td><div>Cursa</div></td></tr><tr><td><div>False</div></td></tr><tr><td><div>/SIGESC/default/cursa_manage</div></td></tr><tr><td><div><table></table></div></td></tr></table></div></td></tr><tr><td><div><table><tr><td><div>Carrera</div></td></tr><tr><td><div>False</div></td></tr><tr><td><div>/SIGESC/default/carrera_manage</div></td></tr><tr><td><div><table></table></div></td></tr></table></div></td></tr><tr><td><div><table><tr><td><div>Tipoprop</div></td></tr><tr><td><div>False</div></td></tr><tr><td><div>/SIGESC/default/tipoprop_manage</div></td></tr><tr><td><div><table></table></div></td></tr></table></div></td></tr><tr><td><div><table><tr><td><div>Relacionestproy</div></td></tr><tr><td><div>False</div></td></tr><tr><td><div>/SIGESC/default/relacionestproy_manage</div></td></tr><tr><td><div><table></table></div></td></tr></table></div></td></tr></table></div></td></tr><tr><td style="font-weight:bold;vertical-align:top;">meta</td><td style="vertical-align:top;">:</td><td><div><table><tr><td style="font-weight:bold;vertical-align:top;">author</td><td style="vertical-align:top;">:</td><td><div>Roraima Tech &lt;you@example.com&gt;</div></td></tr><tr><td style="font-weight:bold;vertical-align:top;">description</td><td style="vertical-align:top;">:</td><td><div></div></td></tr><tr><td style="font-weight:bold;vertical-align:top;">keywords</td><td style="vertical-align:top;">:</td><td><div></div></td></tr></table></div></td></tr><tr><td style="font-weight:bold;vertical-align:top;">models_to_run</td><td style="vertical-align:top;">:</td><td><div><table><tr><td><div>^\\w+\\.py$</div></td></tr><tr><td><div>^default/\\w+\\.py$</div></td></tr><tr><td><div>^default/estudiantes/\\w+\\.py$</div></td></tr></table></div></td></tr><tr><td style="font-weight:bold;vertical-align:top;">postprocessing</td><td style="vertical-align:top;">:</td><td><div><table></table></div></td></tr><tr><td style="font-weight:bold;vertical-align:top;">session_client</td><td style="vertical-align:top;">:</td><td><div>127.0.0.1</div></td></tr><tr><td style="font-weight:bold;vertical-align:top;">session_cookie_compression_level</td><td style="vertical-align:top;">:</td><td><div>None</div></td></tr><tr><td style="font-weight:bold;vertical-align:top;">session_cookie_expires</td><td style="vertical-align:top;">:</td><td><div>None</div></td></tr><tr><td style="font-weight:bold;vertical-align:top;">session_cookie_key</td><td style="vertical-align:top;">:</td><td><div>None</div></td></tr><tr><td style="font-weight:bold;vertical-align:top;">session_data_name</td><td style="vertical-align:top;">:</td><td><div>session_data_sigesc</div></td></tr><tr><td style="font-weight:bold;vertical-align:top;">session_file</td><td style="vertical-align:top;">:</td><td><div>&lt;open file &#x27;/home/daniel/Descargas/web2py/applications/SIGESC/sessions/1ab/0ba/127.0.0.1-5f0fa0dd-0cd2-4736-b634-d56ee227fe47&#x27;, mode &#x27;rb+&#x27; at 0x7f0a78add300&gt;</div></td></tr><tr><td style="font-weight:bold;vertical-align:top;">session_filename</td><td style="vertical-align:top;">:</td><td><div>/home/daniel/Descargas/web2py/applications/SIGESC/sessions/127.0.0.1-5f0fa0dd-0cd2-4736-b634-d56ee227fe47</div></td></tr><tr><td style="font-weight:bold;vertical-align:top;">session_hash</td><td style="vertical-align:top;">:</td><td><div>168ff78f44437e4eaa85c768a916b089</div></td></tr><tr><td style="font-weight:bold;vertical-align:top;">session_id</td><td style="vertical-align:top;">:</td><td><div>127.0.0.1-5f0fa0dd-0cd2-4736-b634-d56ee227fe47</div></td></tr><tr><td style="font-weight:bold;vertical-align:top;">session_id_name</td><td style="vertical-align:top;">:</td><td><div>session_id_sigesc</div></td></tr><tr><td style="font-weight:bold;vertical-align:top;">session_locked</td><td style="vertical-align:top;">:</td><td><div>True</div></td></tr><tr><td style="font-weight:bold;vertical-align:top;">session_masterapp</td><td style="vertical-align:top;">:</td><td><div>SIGESC</div></td></tr><tr><td style="font-weight:bold;vertical-align:top;">session_new</td><td style="vertical-align:top;">:</td><td><div>False</div></td></tr><tr><td style="font-weight:bold;vertical-align:top;">session_storage_type</td><td style="vertical-align:top;">:</td><td><div>file</div></td></tr><tr><td style="font-weight:bold;vertical-align:top;">status</td><td style="vertical-align:top;">:</td><td><div>200</div></td></tr><tr><td style="font-weight:bold;vertical-align:top;">subtitle</td><td style="vertical-align:top;">:</td><td><div>Sistema de Gestion del Servicio Comunitario</div></td></tr><tr><td style="font-weight:bold;vertical-align:top;">title</td><td style="vertical-align:top;">:</td><td><div>SIGESC</div></td></tr><tr><td style="font-weight:bold;vertical-align:top;">view</td><td style="vertical-align:top;">:</td><td><div>default/estudiantes.html</div></td></tr></table></div>'
tRp133
sS'locals'
p134
(dp135
g4
S"'/home/daniel/Descargas/web2py/applications/SIGESC/views/default/estudiantes.html'"
p136
sg6
S'r"response.write(\'<!--{% load staticfiles %}-->\\n<...iv>\\n</div>\\n</footer>\\n</body>\\n\', escape=False)"'
p137
sssS'traceback'
p138
S'Traceback (most recent call last):\n  File "/home/daniel/Descargas/web2py/gluon/restricted.py", line 223, in restricted\n    ccode = compile2(code, layer)\n  File "/home/daniel/Descargas/web2py/gluon/restricted.py", line 206, in compile2\n    return compile(code.rstrip().replace(\'\\r\\n\', \'\\n\') + \'\\n\', layer, \'exec\')\n  File "/home/daniel/Descargas/web2py/applications/SIGESC/views/default/estudiantes.html", line 47\n    if msj\n         ^\nSyntaxError: invalid syntax\n'
p139
s.