(dp1
S'output'
p2
S"<type 'exceptions.KeyError'> 't_estudiante.id'"
p3
sS'layer'
p4
S'/var/www/web2py/applications/SIGESC/views/default/estudiantesDetalles.html'
p5
sS'code'
p6
S'response.write(\'<!--{% load staticfiles %}-->\\n<!DOCTYPE html>\\n<html>\\n<head>\\n\\t<meta charset="utf-8">\\n\\t<meta http-equiv="Content-Type" content="text/html; charset=UTF-8">\\n\\t<meta http-equiv="X-UA-Compatible" content="IE=edge">\\n\\t<meta name="viewport" content="width=device-width, initial-scale=1.0">\\n\\t<title>CFCG</title>\\n\\n\\t\\n\\t<!-- Compiled and minified CSS -->\\n\\t<!--<link rel="stylesheet" href="{% static \\\'css/bootstrap.min.css\\\' %} ">-->\\n\\t<link href="\', escape=False)\nresponse.write(URL(\'static\', \'css/bootstrap.min.css\', scheme=\'http\'))\nresponse.write(\'" rel="stylesheet" />\\n\\t<!-- Optional theme -->\\n\\t<!--<link rel="stylesheet" href="{% static \\\'css/bootstrap-theme.min.css\\\' %}">-->\\n\\t<link href="\', escape=False)\nresponse.write(URL(\'static\', \'css/bootstrap-theme.min.css\', scheme=\'http\'))\nresponse.write(\'" rel="stylesheet" />\\n\\t<!-- Latest compiled and minified JavaScript -->\\n\\t<!--<script src="{% static \\\'js/bootstrap.min.js\\\' %}"></script>-->\\t\\n\\t<link href="\', escape=False)\nresponse.write(URL(\'static\', \'css/bootstrap.min.js\', scheme=\'http\'))\nresponse.write(\'" rel="stylesheet"/>\\n\\n</head>\\n<body>\\n\\t<header>\\n\\t\\t<div align="center">\\n\\t\\t\\t\\t<img src="\', escape=False)\nresponse.write(URL(\'static\', \'img/top.png\'))\nresponse.write(\'" class="img-responsive" alt="top" width="73%">\\n\\t\\t\\t</a>\\n\\t\\t</div>\\n\\t</header>\\n\\t\\n\\t<div class="container" style="width: 75%;">\\n\\t\\t\', escape=False)\nresponse.write(\'\\n<!DOCTYPE html>\\n<!-- saved from url=(0039)http://getbootstrap.com/examples/theme/ -->\\n<html lang="en">\\n  <head>\\n    <meta http-equiv="Content-Type" content="text/html; charset=UTF-8">\\n    <meta charset="utf-8">\\n    <meta http-equiv="X-UA-Compatible" content="IE=edge">\\n    <meta name="viewport" content="width=device-width, initial-scale=1">\\n    <meta name="description" content="">\\n    <meta name="author" content="">\\n    \\n    <link rel="icon" href="http://getbootstrap.com/favicon.ico">\\n\\n    <link rel="stylesheet" href="\', escape=False)\nresponse.write(URL(\'static\', \'css/font-awesome.min.css\'))\nresponse.write(\'">\\n    \\n    <link rel="stylesheet" href="\', escape=False)\nresponse.write(URL(\'static\', \'css/bootstrap.min.css\'))\nresponse.write(\'">\\n    <link rel="stylesheet" href="\', escape=False)\nresponse.write(URL(\'static\', \'css/Pag_principal.css\'))\nresponse.write(\'%}">\\n    <link rel="stylesheet" href="\', escape=False)\nresponse.write(URL(\'static\', \'css/proponentes.css\'))\nresponse.write(\'">\\n    \\n    <link rel="icon" href="//getbootstrap.com/favicon.ico">\\n    \\n    \\n    \\n    <!-- Bootstrap core CSS -->    \\n    <link href="\', escape=False)\nresponse.write(URL(\'static\', \'css/bootstrap.css\'))\nresponse.write(\'" rel="stylesheet">\\n    <!-- Bootstrap theme -->    \\n    <link href="\', escape=False)\nresponse.write(URL(\'static\', \'css/bootstrap-theme.css\'))\nresponse.write(\'" rel="stylesheet">\\n\\n    <script type="text/javascript" src="\', escape=False)\nresponse.write(URL(\'static\', \'js/jquery-1.11.2.js\'))\nresponse.write(\'">\\n    </script>\\n    \\n    <!-- Custom styles for this template -->\\n    \\n    <link href="\', escape=False)\nresponse.write(URL(\'static\', \'css/theme.css\'))\nresponse.write(\'" rel="stylesheet">    \\n    <link href="\', escape=False)\nresponse.write(URL(\'static\', \'js/bootstrap.js\'))\nresponse.write(\'" rel="stylesheet">\\n    \\n    <link href="\', escape=False)\nresponse.write(URL(\'static\', \'fonts/glyphicons-halflings-regular.svg\', scheme=\'http\'))\nresponse.write(\'" rel="stylesheet"/>\\n    <link href="\', escape=False)\nresponse.write(URL(\'static\', \'fonts/glyphicons-halflings-regular.eot\', scheme=\'http\'))\nresponse.write(\'" rel="stylesheet" />\\n\\n    <link href="\', escape=False)\nresponse.write(URL(\'static\', \'fonts/glyphicons-halflings-regular.ttf\', scheme=\'http\'))\nresponse.write(\'" rel="stylesheet" />\\n    <link href="\', escape=False)\nresponse.write(URL(\'static\', \'fonts/glyphicons-halflings-regular.woff\', scheme=\'http\'))\nresponse.write(\'" rel="stylesheet" />\\n    <link href="\', escape=False)\nresponse.write(URL(\'static\', \'fonts/glyphicons-halflings-regular.woff2\', scheme=\'http\'))\nresponse.write(\'" rel="stylesheet" />\\n    \\n  </head>\\n  \\n  <body role="document">\\n    <!-- Fixed navbar -->\\n    \\n    <nav class="navbar navbar-default">\\n      <div class="container">\\n        <div class="navbar-header">\\n          <button type="button" class="navbar-toggle collapsed" data-toggle="collapse" data-target="#navbar" aria-expanded="false" aria-controls="navbar">\\n            <span class="sr-only">\\n              Toggle navigation\\n            </span>\\n            <span class="icon-bar">\\n            </span>\\n            <span class="icon-bar">\\n            </span>\\n            <span class="icon-bar">\\n            </span>\\n          </button>\\n<a href="https://sc.cesma.usb.ve/SIGESC/default/vista_admin"><img class="home" src="/SIGESC/static/img/home.png">\\n</a>/>\\n        </div>\\n        <div id="navbar" class="navbar-collapse collapse">\\n          <ul class="nav navbar-nav">\\n            <li>\\n              <a href="http://getbootstrap.com/examples/theme/#">\\n                \\xc2\\xbfQui&eacute;nes somos?\\n              </a>\\n            </li>\\n            <li>\\n              <a href="http://getbootstrap.com/examples/theme/#about">\\n                Formatos SC\\n              </a>\\n            </li>\\n            <li>\\n              <a href="http://getbootstrap.com/examples/theme/#contact">\\n                Reglamentos SC\\n              </a>\\n            </li>\\n            <li>\\n              <a href="http://getbootstrap.com/examples/theme/#contact">\\n                Decanato de extensi\\xc3\\xb3n\\n              </a>\\n            </li>\\n\\t\\t\\t<li>\\n              <a href="http://getbootstrap.com/examples/theme/#contact">\\n                Proyectos\\n              </a>\\n            </li>\\n            \\n          </ul>\\n        </div>\\n        <!--/.nav-collapse -->\\n      </div>\\n    </nav>\\n    \\n    <div class="col-sm-12">\\n        <div class="row">\\n            <div class="col-md-2">\\n                <img src="\', escape=False)\nresponse.write(URL(\'static\', \'estudiantes.png\'))\nresponse.write(\'" class="img-responsive" width="150" height="110"/>\\n            </div>\\n            <div class="col-md-4" align="left">\\n                <h4 style="color:#4682B4">Home / Admin / Estudiantes </h4>\\n            </div>\\n            <div class="col-md-6" align="right">\\n                <a href=".">Salida <img src="\', escape=False)\nresponse.write(URL(\'static\', \'img/salida_icon.png\'))\nresponse.write(\'"/></a>\\n            </div>\\n        </div>\\n        <hr>\\n    </div>\\n\\t\', escape=False)\nif globals().get(\'msj\', False):\n    response.write(\' <p><strong>\', escape=False)\n    response.write(msj)\n    response.write(\'</strong></p>\\n\\t\', escape=False)\nelse:\n    response.write(\'\\n\\t<div class="col-sm-12">\\n    <div class="row">\\n        <div class="col-md-6">\\n            <table class="table table-condensed" id="estuds">\\n                <thead>\\n                    <tr>\\n                        <th> Detalles del estudiante</i></th>\\n\\n                    </tr>\\n                </thead>\\n                <tbody>\\n                    <tr>\\n                          \', escape=False)\n    response.write(SQLTABLE(rows,headers={\'t_estudiante.id\':\'Id\',\n    \'t_estudiante.f_usbid\':\'USBID\',\n    \'t_estudiante.f_nombre\':\'Nombre\',\n    \'t_estudiante.f_apellido\':\'Apellido\',\n    \'t_estudiante.f_cedula\':\'Cedula\',\n    \'t_estudiante.f_carrera\':\'Carrera\',\n    \'t_estudiante.f_sede\':\'Sede\',\n    \'t_estudiante.f_email\':\'Correo electronico\',\n    \'t_estudiante.f_sexo\':\'Sexo\',\n    \'t_estudiante.f_telefono\':\'Telefono\',\n    \'t_estudiante.f_direccion\':\'Direccion\',\n    \'t_estudiante.is_active\':\'Esta activo\',\n    \'t_estudiante.created_on\':\'Fecha de creacion\',\n    \'t_estudiante.created_by\':\'Creado por\',\n    \'t_estudiante.modified_on\':\'Fecha de modificacion\',\n    \'t_estudiante.modified_by\':\'Modificado por\' }))\n    response.write(\'\\n                  </tr>\\n                  \', escape=False)\n    pass\nresponse.write(\'\\n                </tbody>\\n            </table>\\n        </div>\\n    \\n        <div class="col-md-5">\\n            \', escape=False)\nresponse.write(SQLTABLE(rows,headers={\'t_estudiante.f_carrera\':\'Carrera\'}))\nresponse.write(\'\\n        </div>\\n    </div>\\n\\t\', escape=False)\npass\nresponse.write(\'\\n\', escape=False)\nresponse.write(\'\\n\\t</div>\\n\\t\\n\\t\\n<footer style="margin-top: 5%">\\n<div align="center">\\n\\t<div>\\n\\t\\t<div>\\n\\t\\t\\t<div>\\n\\t\\t\\t\\t<table align="center" border="0" cellpadding="1" cellspacing="1"><tbody><tr><td valign="bottom" width="95">\\n\\t\\t\\t\\t<a href="http://www.usb.ve"><img alt="" src="http://cfgc.dex.usb.ve/sites/default/files/cebolla_70_45.jpg"></a></td>\\n\\t\\t\\t\\t<td valign="bottom">\\n\\t\\t\\t\\t<a href="http://www.usb.ve/estudios/calendario.html" target="_blank">Calendario </a>|<a href="http://www.usb.ve/telefonico/telefonico.php?tipo=personal" target="_blank"> Directorio USB </a>|<a href="https://asignaturas.usb.ve/" target="_blank"> Aula Virtual USB</a> |<a href="https://webmail.usb.ve/" target="_blank"> Webmail</a>|<a href="http://www.usb.ve/buscador.php" target="_blank"> Buscador</a> |<br>\\n\\t\\t\\t\\tSartenejas, Baruta, Edo. Miranda - Apartado 89000 - Cable Unibolivar - Caracas Venezuela. Telefono +58 0212-9063111<br>\\n\\t\\t\\t\\tDisenada y desarrollada por la Direccion de Servicios Multimedia <a href="mailto:webmaster@usb.ve">webmaster@usb.ve</a></td>\\n\\t\\t\\t\\t</tr></tbody></table><p>\\n\\t\\t\\t\\t&nbsp;</p>\\n\\t\\t\\t</div>\\n\\t\\t</div>\\n\\t</div>\\n</div>\\n</footer>\\n</body>\\n\', escape=False)'
p7
sS'snapshot'
p8
(dp9
S'exception'
p10
(dp11
S'__hash__'
p12
S"<method-wrapper '__hash__' of exceptions.KeyError object>"
p13
sS'__setattr__'
p14
S"<method-wrapper '__setattr__' of exceptions.KeyError object>"
p15
sS'__reduce_ex__'
p16
S'<built-in method __reduce_ex__ of exceptions.KeyError object>'
p17
sS'__getslice__'
p18
S"<method-wrapper '__getslice__' of exceptions.KeyError object>"
p19
sS'__getitem__'
p20
S"<method-wrapper '__getitem__' of exceptions.KeyError object>"
p21
sS'__setstate__'
p22
S'<built-in method __setstate__ of exceptions.KeyError object>'
p23
sS'args'
p24
S"('t_estudiante.id',)"
p25
sS'__reduce__'
p26
S'<built-in method __reduce__ of exceptions.KeyError object>'
p27
sS'__str__'
p28
S"<method-wrapper '__str__' of exceptions.KeyError object>"
p29
sS'__format__'
p30
S'<built-in method __format__ of exceptions.KeyError object>'
p31
sS'__getattribute__'
p32
S"<method-wrapper '__getattribute__' of exceptions.KeyError object>"
p33
sS'__class__'
p34
S"<type 'exceptions.KeyError'>"
p35
sS'__unicode__'
p36
S'<built-in method __unicode__ of exceptions.KeyError object>'
p37
sS'__delattr__'
p38
S"<method-wrapper '__delattr__' of exceptions.KeyError object>"
p39
sS'__subclasshook__'
p40
S'<built-in method __subclasshook__ of type object>'
p41
sS'__repr__'
p42
S"<method-wrapper '__repr__' of exceptions.KeyError object>"
p43
sS'__dict__'
p44
S'{}'
p45
sS'__sizeof__'
p46
S'<built-in method __sizeof__ of exceptions.KeyError object>'
p47
sS'__doc__'
p48
S"'Mapping key not found.'"
p49
sS'__init__'
p50
S"<method-wrapper '__init__' of exceptions.KeyError object>"
p51
sS'__new__'
p52
S'<built-in method __new__ of type object>'
p53
ssS'evalue'
p54
S"'t_estudiante.id'"
p55
sS'request'
p56
cgluon.html
XML_unpickle
p57
(S's\xb3e\x00\x00<div><table><tr><td style="font-weight:bold;vertical-align:top;">ajax</td><td style="vertical-align:top;">:</td><td><div>False</div></td></tr><tr><td style="font-weight:bold;vertical-align:top;">application</td><td style="vertical-align:top;">:</td><td><div>SIGESC</div></td></tr><tr><td style="font-weight:bold;vertical-align:top;">args</td><td style="vertical-align:top;">:</td><td><div><table><tr><td><div>3</div></td></tr></table></div></td></tr><tr><td style="font-weight:bold;vertical-align:top;">cid</td><td style="vertical-align:top;">:</td><td><div>None</div></td></tr><tr><td style="font-weight:bold;vertical-align:top;">client</td><td style="vertical-align:top;">:</td><td><div>190.72.122.116</div></td></tr><tr><td style="font-weight:bold;vertical-align:top;">controller</td><td style="vertical-align:top;">:</td><td><div>default</div></td></tr><tr><td style="font-weight:bold;vertical-align:top;">cookies</td><td style="vertical-align:top;">:</td><td><div><table><tr><td style="font-weight:bold;vertical-align:top;">csrftoken</td><td style="vertical-align:top;">:</td><td><div>ykaZkxW7M3AqLYcw60YL33nJAxIVqaZ4<table><tr><td style="font-weight:bold;vertical-align:top;">comment</td><td style="vertical-align:top;">:</td><td><div></div></td></tr><tr><td style="font-weight:bold;vertical-align:top;">domain</td><td style="vertical-align:top;">:</td><td><div></div></td></tr><tr><td style="font-weight:bold;vertical-align:top;">expires</td><td style="vertical-align:top;">:</td><td><div></div></td></tr><tr><td style="font-weight:bold;vertical-align:top;">httponly</td><td style="vertical-align:top;">:</td><td><div></div></td></tr><tr><td style="font-weight:bold;vertical-align:top;">max-age</td><td style="vertical-align:top;">:</td><td><div></div></td></tr><tr><td style="font-weight:bold;vertical-align:top;">path</td><td style="vertical-align:top;">:</td><td><div></div></td></tr><tr><td style="font-weight:bold;vertical-align:top;">secure</td><td style="vertical-align:top;">:</td><td><div></div></td></tr><tr><td style="font-weight:bold;vertical-align:top;">version</td><td style="vertical-align:top;">:</td><td><div></div></td></tr></table></div></td></tr><tr><td style="font-weight:bold;vertical-align:top;">session_id_admin</td><td style="vertical-align:top;">:</td><td><div>159.90.10.56-2ef4d59f-0c91-444b-b8e8-6b40f89284b8<table><tr><td style="font-weight:bold;vertical-align:top;">comment</td><td style="vertical-align:top;">:</td><td><div></div></td></tr><tr><td style="font-weight:bold;vertical-align:top;">domain</td><td style="vertical-align:top;">:</td><td><div></div></td></tr><tr><td style="font-weight:bold;vertical-align:top;">expires</td><td style="vertical-align:top;">:</td><td><div></div></td></tr><tr><td style="font-weight:bold;vertical-align:top;">httponly</td><td style="vertical-align:top;">:</td><td><div></div></td></tr><tr><td style="font-weight:bold;vertical-align:top;">max-age</td><td style="vertical-align:top;">:</td><td><div></div></td></tr><tr><td style="font-weight:bold;vertical-align:top;">path</td><td style="vertical-align:top;">:</td><td><div></div></td></tr><tr><td style="font-weight:bold;vertical-align:top;">secure</td><td style="vertical-align:top;">:</td><td><div></div></td></tr><tr><td style="font-weight:bold;vertical-align:top;">version</td><td style="vertical-align:top;">:</td><td><div></div></td></tr></table></div></td></tr><tr><td style="font-weight:bold;vertical-align:top;">session_id_sigesc</td><td style="vertical-align:top;">:</td><td><div>190.72.122.116-7e6bb409-3cbb-41d1-993d-8205c5bf3ecc<table><tr><td style="font-weight:bold;vertical-align:top;">comment</td><td style="vertical-align:top;">:</td><td><div></div></td></tr><tr><td style="font-weight:bold;vertical-align:top;">domain</td><td style="vertical-align:top;">:</td><td><div></div></td></tr><tr><td style="font-weight:bold;vertical-align:top;">expires</td><td style="vertical-align:top;">:</td><td><div></div></td></tr><tr><td style="font-weight:bold;vertical-align:top;">httponly</td><td style="vertical-align:top;">:</td><td><div></div></td></tr><tr><td style="font-weight:bold;vertical-align:top;">max-age</td><td style="vertical-align:top;">:</td><td><div></div></td></tr><tr><td style="font-weight:bold;vertical-align:top;">path</td><td style="vertical-align:top;">:</td><td><div></div></td></tr><tr><td style="font-weight:bold;vertical-align:top;">secure</td><td style="vertical-align:top;">:</td><td><div></div></td></tr><tr><td style="font-weight:bold;vertical-align:top;">version</td><td style="vertical-align:top;">:</td><td><div></div></td></tr></table></div></td></tr><tr><td style="font-weight:bold;vertical-align:top;">session_id_welcome</td><td style="vertical-align:top;">:</td><td><div>159.90.10.56-c7080ea9-87df-4840-ad96-8b7072539d50<table><tr><td style="font-weight:bold;vertical-align:top;">comment</td><td style="vertical-align:top;">:</td><td><div></div></td></tr><tr><td style="font-weight:bold;vertical-align:top;">domain</td><td style="vertical-align:top;">:</td><td><div></div></td></tr><tr><td style="font-weight:bold;vertical-align:top;">expires</td><td style="vertical-align:top;">:</td><td><div></div></td></tr><tr><td style="font-weight:bold;vertical-align:top;">httponly</td><td style="vertical-align:top;">:</td><td><div></div></td></tr><tr><td style="font-weight:bold;vertical-align:top;">max-age</td><td style="vertical-align:top;">:</td><td><div></div></td></tr><tr><td style="font-weight:bold;vertical-align:top;">path</td><td style="vertical-align:top;">:</td><td><div></div></td></tr><tr><td style="font-weight:bold;vertical-align:top;">secure</td><td style="vertical-align:top;">:</td><td><div></div></td></tr><tr><td style="font-weight:bold;vertical-align:top;">version</td><td style="vertical-align:top;">:</td><td><div></div></td></tr></table></div></td></tr></table></div></td></tr><tr><td style="font-weight:bold;vertical-align:top;">env</td><td style="vertical-align:top;">:</td><td><div><table><tr><td style="font-weight:bold;vertical-align:top;">HTTPS</td><td style="vertical-align:top;">:</td><td><div>on</div></td></tr><tr><td style="font-weight:bold;vertical-align:top;">HTTP_ACCEPT</td><td style="vertical-align:top;">:</td><td><div>text/html,application/xhtml+xml,application/xml;q=0.9,*/*;q=0.8</div></td></tr><tr><td style="font-weight:bold;vertical-align:top;">HTTP_ACCEPT_ENCODING</td><td style="vertical-align:top;">:</td><td><div>gzip, deflate</div></td></tr><tr><td style="font-weight:bold;vertical-align:top;">HTTP_ACCEPT_LANGUAGE</td><td style="vertical-align:top;">:</td><td><div>es-ar,es;q=0.8,en-us;q=0.5,en;q=0.3</div></td></tr><tr><td style="font-weight:bold;vertical-align:top;">HTTP_CACHE_CONTROL</td><td style="vertical-align:top;">:</td><td><div>max-age=0</div></td></tr><tr><td style="font-weight:bold;vertical-align:top;">HTTP_CONNECTION</td><td style="vertical-align:top;">:</td><td><div>keep-alive</div></td></tr><tr><td style="font-weight:bold;vertical-align:top;">HTTP_COOKIE</td><td style="vertical-align:top;">:</td><td><div>__utma=69842068.651467059.1421116507.1424836976.1424839485.4; __utmz=69842068.1421116507.1.1.utmcsr=cct.dex.usb.ve|utmccn=(referral)|utmcmd=referral|utmcct=/SC/vVerMisInscripciones.php; csrftoken=ykaZkxW7M3AqLYcw60YL33nJAxIVqaZ4; session_id_welcome=159.90.10.56-c7080ea9-87df-4840-ad96-8b7072539d50; session_id_admin=159.90.10.56-2ef4d59f-0c91-444b-b8e8-6b40f89284b8; session_id_sigesc=190.72.122.116-7e6bb409-3cbb-41d1-993d-8205c5bf3ecc; __utmc=69842068</div></td></tr><tr><td style="font-weight:bold;vertical-align:top;">HTTP_HOST</td><td style="vertical-align:top;">:</td><td><div>sc.cesma.usb.ve</div></td></tr><tr><td style="font-weight:bold;vertical-align:top;">HTTP_REFERER</td><td style="vertical-align:top;">:</td><td><div>https://sc.cesma.usb.ve/SIGESC/default/estudiantes</div></td></tr><tr><td style="font-weight:bold;vertical-align:top;">HTTP_USER_AGENT</td><td style="vertical-align:top;">:</td><td><div>Mozilla/5.0 (X11; Ubuntu; Linux i686; rv:35.0) Gecko/20100101 Firefox/35.0</div></td></tr><tr><td style="font-weight:bold;vertical-align:top;">PATH_INFO</td><td style="vertical-align:top;">:</td><td><div>/SIGESC/default/estudiantesDetalles/3</div></td></tr><tr><td style="font-weight:bold;vertical-align:top;">QUERY_STRING</td><td style="vertical-align:top;">:</td><td><div></div></td></tr><tr><td style="font-weight:bold;vertical-align:top;">REMOTE_ADDR</td><td style="vertical-align:top;">:</td><td><div>190.72.122.116</div></td></tr><tr><td style="font-weight:bold;vertical-align:top;">REMOTE_PORT</td><td style="vertical-align:top;">:</td><td><div>48967</div></td></tr><tr><td style="font-weight:bold;vertical-align:top;">REQUEST_METHOD</td><td style="vertical-align:top;">:</td><td><div>GET</div></td></tr><tr><td style="font-weight:bold;vertical-align:top;">SCRIPT_NAME</td><td style="vertical-align:top;">:</td><td><div></div></td></tr><tr><td style="font-weight:bold;vertical-align:top;">SERVER_NAME</td><td style="vertical-align:top;">:</td><td><div>sc</div></td></tr><tr><td style="font-weight:bold;vertical-align:top;">SERVER_PORT</td><td style="vertical-align:top;">:</td><td><div>443</div></td></tr><tr><td style="font-weight:bold;vertical-align:top;">SERVER_PROTOCOL</td><td style="vertical-align:top;">:</td><td><div>HTTP/1.1</div></td></tr><tr><td style="font-weight:bold;vertical-align:top;">SERVER_SOFTWARE</td><td style="vertical-align:top;">:</td><td><div>Rocket 1.2.6</div></td></tr><tr><td style="font-weight:bold;vertical-align:top;">SSL_CLIENT_RAW_CERT</td><td style="vertical-align:top;">:</td><td><div>None</div></td></tr><tr><td style="font-weight:bold;vertical-align:top;">app_folders</td><td style="vertical-align:top;">:</td><td><div>set([&#x27;/var/www/web2py/applications/examples/&#x27;, &#x27;/var/www/web2py/applications/SIGESC/&#x27;, &#x27;/var/www/web2py/applications/welcome/&#x27;, &#x27;/var/www/web2py/applications/admin/&#x27;])</div></td></tr><tr><td style="font-weight:bold;vertical-align:top;">applications_parent</td><td style="vertical-align:top;">:</td><td><div>/var/www/web2py</div></td></tr><tr><td style="font-weight:bold;vertical-align:top;">cmd_args</td><td style="vertical-align:top;">:</td><td><div><table></table></div></td></tr><tr><td style="font-weight:bold;vertical-align:top;">cmd_options</td><td style="vertical-align:top;">:</td><td><div>&lt;Values at 0x2d3cb90: {&#x27;verbose&#x27;: False, &#x27;ip&#x27;: &#x27;159.90.15.30&#x27;, &#x27;debuglevel&#x27;: 30, &#x27;with_scheduler&#x27;: False, &#x27;ips&#x27;: [&#x27;159.90.15.30&#x27;], &#x27;shutdown_timeout&#x27;: 5, &#x27;taskbar&#x27;: False, &#x27;with_coverage&#x27;: False, &#x27;scheduler_groups&#x27;: None, &#x27;port&#x27;: 443, &#x27;maxthreads&#x27;: None, &#x27;softcron&#x27;: False, &#x27;server_name&#x27;: &#x27;sc&#x27;, &#x27;bpython&#x27;: False, &#x27;nogui&#x27;: True, &#x27;pid_filename&#x27;: &#x27;httpserver.pid&#x27;, &#x27;extcron&#x27;: False, &#x27;runcron&#x27;: False, &#x27;run_system_tests&#x27;: False, &#x27;test&#x27;: None, &#x27;folder&#x27;: &#x27;/var/www/web2py&#x27;, &#x27;config&#x27;: &#x27;&#x27;, &#x27;minthreads&#x27;: None, &#x27;shell&#x27;: None, &#x27;run&#x27;: &#x27;&#x27;, &#x27;log_filename&#x27;: &#x27;httpserver.log&#x27;, &#x27;profiler_dir&#x27;: None, &#x27;args&#x27;: [&#x27;&#x27;], &#x27;socket_timeout&#x27;: 5, &#x27;ssl_ca_certificate&#x27;: None, &#x27;scheduler&#x27;: None, &#x27;interfaces&#x27;: None, &#x27;ssl_private_key&#x27;: &#x27;server.key&#x27;, &#x27;gae&#x27;: None, &#x27;password&#x27;: &#x27;1234&#x27;, &#x27;request_queue_size&#x27;: 5, &#x27;ssl_certificate&#x27;: &#x27;server.crt&#x27;, &#x27;cronjob&#x27;: False, &#x27;numthreads&#x27;: None, &#x27;quiet&#x27;: False, &#x27;import_models&#x27;: False, &#x27;timeout&#x27;: 10, &#x27;plain&#x27;: False, &#x27;nobanner&#x27;: False}&gt;</div></td></tr><tr><td style="font-weight:bold;vertical-align:top;">db_sessions</td><td style="vertical-align:top;">:</td><td><div>set([])</div></td></tr><tr><td style="font-weight:bold;vertical-align:top;">debugging</td><td style="vertical-align:top;">:</td><td><div>True</div></td></tr><tr><td style="font-weight:bold;vertical-align:top;">gluon_parent</td><td style="vertical-align:top;">:</td><td><div>/var/www/web2py</div></td></tr><tr><td style="font-weight:bold;vertical-align:top;">http_accept</td><td style="vertical-align:top;">:</td><td><div>text/html,application/xhtml+xml,application/xml;q=0.9,*/*;q=0.8</div></td></tr><tr><td style="font-weight:bold;vertical-align:top;">http_accept_encoding</td><td style="vertical-align:top;">:</td><td><div>gzip, deflate</div></td></tr><tr><td style="font-weight:bold;vertical-align:top;">http_accept_language</td><td style="vertical-align:top;">:</td><td><div>es-ar,es;q=0.8,en-us;q=0.5,en;q=0.3</div></td></tr><tr><td style="font-weight:bold;vertical-align:top;">http_cache_control</td><td style="vertical-align:top;">:</td><td><div>max-age=0</div></td></tr><tr><td style="font-weight:bold;vertical-align:top;">http_connection</td><td style="vertical-align:top;">:</td><td><div>keep-alive</div></td></tr><tr><td style="font-weight:bold;vertical-align:top;">http_cookie</td><td style="vertical-align:top;">:</td><td><div>__utma=69842068.651467059.1421116507.1424836976.1424839485.4; __utmz=69842068.1421116507.1.1.utmcsr=cct.dex.usb.ve|utmccn=(referral)|utmcmd=referral|utmcct=/SC/vVerMisInscripciones.php; csrftoken=ykaZkxW7M3AqLYcw60YL33nJAxIVqaZ4; session_id_welcome=159.90.10.56-c7080ea9-87df-4840-ad96-8b7072539d50; session_id_admin=159.90.10.56-2ef4d59f-0c91-444b-b8e8-6b40f89284b8; session_id_sigesc=190.72.122.116-7e6bb409-3cbb-41d1-993d-8205c5bf3ecc; __utmc=69842068</div></td></tr><tr><td style="font-weight:bold;vertical-align:top;">http_host</td><td style="vertical-align:top;">:</td><td><div>sc.cesma.usb.ve</div></td></tr><tr><td style="font-weight:bold;vertical-align:top;">http_referer</td><td style="vertical-align:top;">:</td><td><div>https://sc.cesma.usb.ve/SIGESC/default/estudiantes</div></td></tr><tr><td style="font-weight:bold;vertical-align:top;">http_user_agent</td><td style="vertical-align:top;">:</td><td><div>Mozilla/5.0 (X11; Ubuntu; Linux i686; rv:35.0) Gecko/20100101 Firefox/35.0</div></td></tr><tr><td style="font-weight:bold;vertical-align:top;">https</td><td style="vertical-align:top;">:</td><td><div>on</div></td></tr><tr><td style="font-weight:bold;vertical-align:top;">is_jython</td><td style="vertical-align:top;">:</td><td><div>False</div></td></tr><tr><td style="font-weight:bold;vertical-align:top;">is_pypy</td><td style="vertical-align:top;">:</td><td><div>False</div></td></tr><tr><td style="font-weight:bold;vertical-align:top;">is_source</td><td style="vertical-align:top;">:</td><td><div>True</div></td></tr><tr><td style="font-weight:bold;vertical-align:top;">local_hosts</td><td style="vertical-align:top;">:</td><td><div><table><tr><td><div>sc.cesma.usb.ve</div></td></tr><tr><td><div>::ffff:127.0.0.1</div></td></tr><tr><td><div>::1</div></td></tr><tr><td><div>sc</div></td></tr><tr><td><div>127.0.0.1</div></td></tr><tr><td><div>159.90.15.30</div></td></tr></table></div></td></tr><tr><td style="font-weight:bold;vertical-align:top;">path_info</td><td style="vertical-align:top;">:</td><td><div>/SIGESC/default/estudiantesDetalles/3</div></td></tr><tr><td style="font-weight:bold;vertical-align:top;">query_string</td><td style="vertical-align:top;">:</td><td><div></div></td></tr><tr><td style="font-weight:bold;vertical-align:top;">remote_addr</td><td style="vertical-align:top;">:</td><td><div>190.72.122.116</div></td></tr><tr><td style="font-weight:bold;vertical-align:top;">remote_port</td><td style="vertical-align:top;">:</td><td><div>48967</div></td></tr><tr><td style="font-weight:bold;vertical-align:top;">request_method</td><td style="vertical-align:top;">:</td><td><div>GET</div></td></tr><tr><td style="font-weight:bold;vertical-align:top;">request_uri</td><td style="vertical-align:top;">:</td><td><div>/SIGESC/default/estudiantesDetalles/3</div></td></tr><tr><td style="font-weight:bold;vertical-align:top;">script_name</td><td style="vertical-align:top;">:</td><td><div></div></td></tr><tr><td style="font-weight:bold;vertical-align:top;">server_name</td><td style="vertical-align:top;">:</td><td><div>sc</div></td></tr><tr><td style="font-weight:bold;vertical-align:top;">server_port</td><td style="vertical-align:top;">:</td><td><div>443</div></td></tr><tr><td style="font-weight:bold;vertical-align:top;">server_protocol</td><td style="vertical-align:top;">:</td><td><div>HTTP/1.1</div></td></tr><tr><td style="font-weight:bold;vertical-align:top;">server_software</td><td style="vertical-align:top;">:</td><td><div>Rocket 1.2.6</div></td></tr><tr><td style="font-weight:bold;vertical-align:top;">ssl_client_raw_cert</td><td style="vertical-align:top;">:</td><td><div>None</div></td></tr><tr><td style="font-weight:bold;vertical-align:top;">web2py_path</td><td style="vertical-align:top;">:</td><td><div>/var/www/web2py</div></td></tr><tr><td style="font-weight:bold;vertical-align:top;">web2py_version</td><td style="vertical-align:top;">:</td><td><div>2.9.12-stable+timestamp.2015.01.17.06.11.03</div></td></tr><tr><td style="font-weight:bold;vertical-align:top;">wsgi.errors</td><td style="vertical-align:top;">:</td><td><div>&lt;open file &#x27;&lt;stderr&gt;&#x27;, mode &#x27;w&#x27; at 0x7fbd81b48270&gt;</div></td></tr><tr><td style="font-weight:bold;vertical-align:top;">wsgi.file_wrapper</td><td style="vertical-align:top;">:</td><td><div>&lt;class wsgiref.util.FileWrapper at 0x2cc09a8&gt;</div></td></tr><tr><td style="font-weight:bold;vertical-align:top;">wsgi.input</td><td style="vertical-align:top;">:</td><td><div>&lt;socket._fileobject object at 0x7fbd6d13a150&gt;</div></td></tr><tr><td style="font-weight:bold;vertical-align:top;">wsgi.multiprocess</td><td style="vertical-align:top;">:</td><td><div>False</div></td></tr><tr><td style="font-weight:bold;vertical-align:top;">wsgi.multithread</td><td style="vertical-align:top;">:</td><td><div>True</div></td></tr><tr><td style="font-weight:bold;vertical-align:top;">wsgi.run_once</td><td style="vertical-align:top;">:</td><td><div>False</div></td></tr><tr><td style="font-weight:bold;vertical-align:top;">wsgi.url_scheme</td><td style="vertical-align:top;">:</td><td><div>https</div></td></tr><tr><td style="font-weight:bold;vertical-align:top;">wsgi.version</td><td style="vertical-align:top;">:</td><td><div><table><tr><td><div>1</div></td></tr><tr><td><div>0</div></td></tr></table></div></td></tr><tr><td style="font-weight:bold;vertical-align:top;">wsgi_errors</td><td style="vertical-align:top;">:</td><td><div>&lt;open file &#x27;&lt;stderr&gt;&#x27;, mode &#x27;w&#x27; at 0x7fbd81b48270&gt;</div></td></tr><tr><td style="font-weight:bold;vertical-align:top;">wsgi_file_wrapper</td><td style="vertical-align:top;">:</td><td><div>&lt;class wsgiref.util.FileWrapper at 0x2cc09a8&gt;</div></td></tr><tr><td style="font-weight:bold;vertical-align:top;">wsgi_input</td><td style="vertical-align:top;">:</td><td><div>&lt;socket._fileobject object at 0x7fbd6d13a150&gt;</div></td></tr><tr><td style="font-weight:bold;vertical-align:top;">wsgi_multiprocess</td><td style="vertical-align:top;">:</td><td><div>False</div></td></tr><tr><td style="font-weight:bold;vertical-align:top;">wsgi_multithread</td><td style="vertical-align:top;">:</td><td><div>True</div></td></tr><tr><td style="font-weight:bold;vertical-align:top;">wsgi_run_once</td><td style="vertical-align:top;">:</td><td><div>False</div></td></tr><tr><td style="font-weight:bold;vertical-align:top;">wsgi_url_scheme</td><td style="vertical-align:top;">:</td><td><div>https</div></td></tr><tr><td style="font-weight:bold;vertical-align:top;">wsgi_version</td><td style="vertical-align:top;">:</td><td><div><table><tr><td><div>1</div></td></tr><tr><td><div>0</div></td></tr></table></div></td></tr></table></div></td></tr><tr><td style="font-weight:bold;vertical-align:top;">extension</td><td style="vertical-align:top;">:</td><td><div>html</div></td></tr><tr><td style="font-weight:bold;vertical-align:top;">folder</td><td style="vertical-align:top;">:</td><td><div>/var/www/web2py/applications/SIGESC/</div></td></tr><tr><td style="font-weight:bold;vertical-align:top;">function</td><td style="vertical-align:top;">:</td><td><div>estudiantesDetalles</div></td></tr><tr><td style="font-weight:bold;vertical-align:top;">global_settings</td><td style="vertical-align:top;">:</td><td><div><table><tr><td style="font-weight:bold;vertical-align:top;">app_folders</td><td style="vertical-align:top;">:</td><td><div>set([&#x27;/var/www/web2py/applications/examples/&#x27;, &#x27;/var/www/web2py/applications/SIGESC/&#x27;, &#x27;/var/www/web2py/applications/welcome/&#x27;, &#x27;/var/www/web2py/applications/admin/&#x27;])</div></td></tr><tr><td style="font-weight:bold;vertical-align:top;">applications_parent</td><td style="vertical-align:top;">:</td><td><div>/var/www/web2py</div></td></tr><tr><td style="font-weight:bold;vertical-align:top;">cmd_args</td><td style="vertical-align:top;">:</td><td><div><table></table></div></td></tr><tr><td style="font-weight:bold;vertical-align:top;">cmd_options</td><td style="vertical-align:top;">:</td><td><div>&lt;Values at 0x2d3cb90: {&#x27;verbose&#x27;: False, &#x27;ip&#x27;: &#x27;159.90.15.30&#x27;, &#x27;debuglevel&#x27;: 30, &#x27;with_scheduler&#x27;: False, &#x27;ips&#x27;: [&#x27;159.90.15.30&#x27;], &#x27;shutdown_timeout&#x27;: 5, &#x27;taskbar&#x27;: False, &#x27;with_coverage&#x27;: False, &#x27;scheduler_groups&#x27;: None, &#x27;port&#x27;: 443, &#x27;maxthreads&#x27;: None, &#x27;softcron&#x27;: False, &#x27;server_name&#x27;: &#x27;sc&#x27;, &#x27;bpython&#x27;: False, &#x27;nogui&#x27;: True, &#x27;pid_filename&#x27;: &#x27;httpserver.pid&#x27;, &#x27;extcron&#x27;: False, &#x27;runcron&#x27;: False, &#x27;run_system_tests&#x27;: False, &#x27;test&#x27;: None, &#x27;folder&#x27;: &#x27;/var/www/web2py&#x27;, &#x27;config&#x27;: &#x27;&#x27;, &#x27;minthreads&#x27;: None, &#x27;shell&#x27;: None, &#x27;run&#x27;: &#x27;&#x27;, &#x27;log_filename&#x27;: &#x27;httpserver.log&#x27;, &#x27;profiler_dir&#x27;: None, &#x27;args&#x27;: [&#x27;&#x27;], &#x27;socket_timeout&#x27;: 5, &#x27;ssl_ca_certificate&#x27;: None, &#x27;scheduler&#x27;: None, &#x27;interfaces&#x27;: None, &#x27;ssl_private_key&#x27;: &#x27;server.key&#x27;, &#x27;gae&#x27;: None, &#x27;password&#x27;: &#x27;1234&#x27;, &#x27;request_queue_size&#x27;: 5, &#x27;ssl_certificate&#x27;: &#x27;server.crt&#x27;, &#x27;cronjob&#x27;: False, &#x27;numthreads&#x27;: None, &#x27;quiet&#x27;: False, &#x27;import_models&#x27;: False, &#x27;timeout&#x27;: 10, &#x27;plain&#x27;: False, &#x27;nobanner&#x27;: False}&gt;</div></td></tr><tr><td style="font-weight:bold;vertical-align:top;">db_sessions</td><td style="vertical-align:top;">:</td><td><div>set([])</div></td></tr><tr><td style="font-weight:bold;vertical-align:top;">debugging</td><td style="vertical-align:top;">:</td><td><div>True</div></td></tr><tr><td style="font-weight:bold;vertical-align:top;">gluon_parent</td><td style="vertical-align:top;">:</td><td><div>/var/www/web2py</div></td></tr><tr><td style="font-weight:bold;vertical-align:top;">is_jython</td><td style="vertical-align:top;">:</td><td><div>False</div></td></tr><tr><td style="font-weight:bold;vertical-align:top;">is_pypy</td><td style="vertical-align:top;">:</td><td><div>False</div></td></tr><tr><td style="font-weight:bold;vertical-align:top;">is_source</td><td style="vertical-align:top;">:</td><td><div>True</div></td></tr><tr><td style="font-weight:bold;vertical-align:top;">local_hosts</td><td style="vertical-align:top;">:</td><td><div><table><tr><td><div>sc.cesma.usb.ve</div></td></tr><tr><td><div>::ffff:127.0.0.1</div></td></tr><tr><td><div>::1</div></td></tr><tr><td><div>sc</div></td></tr><tr><td><div>127.0.0.1</div></td></tr><tr><td><div>159.90.15.30</div></td></tr></table></div></td></tr><tr><td style="font-weight:bold;vertical-align:top;">web2py_version</td><td style="vertical-align:top;">:</td><td><div>2.9.12-stable+timestamp.2015.01.17.06.11.03</div></td></tr></table></div></td></tr><tr><td style="font-weight:bold;vertical-align:top;">is_https</td><td style="vertical-align:top;">:</td><td><div>True</div></td></tr><tr><td style="font-weight:bold;vertical-align:top;">is_local</td><td style="vertical-align:top;">:</td><td><div>False</div></td></tr><tr><td style="font-weight:bold;vertical-align:top;">is_restful</td><td style="vertical-align:top;">:</td><td><div>False</div></td></tr><tr><td style="font-weight:bold;vertical-align:top;">is_sheduler</td><td style="vertical-align:top;">:</td><td><div>None</div></td></tr><tr><td style="font-weight:bold;vertical-align:top;">is_shell</td><td style="vertical-align:top;">:</td><td><div>None</div></td></tr><tr><td style="font-weight:bold;vertical-align:top;">now</td><td style="vertical-align:top;">:</td><td><div>datetime.datetime(2015, 2, 25, 17, 17, 54, 819325)</div></td></tr><tr><td style="font-weight:bold;vertical-align:top;">raw_args</td><td style="vertical-align:top;">:</td><td><div>3</div></td></tr><tr><td style="font-weight:bold;vertical-align:top;">raw_extension</td><td style="vertical-align:top;">:</td><td><div>None</div></td></tr><tr><td style="font-weight:bold;vertical-align:top;">url</td><td style="vertical-align:top;">:</td><td><div>/SIGESC/default/estudiantesDetalles/3</div></td></tr><tr><td style="font-weight:bold;vertical-align:top;">utcnow</td><td style="vertical-align:top;">:</td><td><div>datetime.datetime(2015, 2, 25, 21, 47, 54, 819350)</div></td></tr><tr><td style="font-weight:bold;vertical-align:top;">uuid</td><td style="vertical-align:top;">:</td><td><div>SIGESC/190.72.122.116.2015-02-25.17-17-54.f796310a-9d47-4351-b409-5b9da3e5a6a1</div></td></tr><tr><td style="font-weight:bold;vertical-align:top;">wsgi</td><td style="vertical-align:top;">:</td><td><div>&lt;gluon.main.LazyWSGI object at 0x36247d0&gt;</div></td></tr></table></div>'
tRp58
sS'frames'
p59
(lp60
(dp61
S'file'
p62
S'/var/www/web2py/gluon/restricted.py'
p63
sS'dump'
p64
(dp65
S'environment'
p66
S"{'A': <class 'gluon.html.A'>, 'ANY_OF': <class 'gluon.validators.ANY_OF'>, 'ASSIGNJS': <function ASSIGNJS>, 'Auth': <class 'gluon.tools.Auth'>, 'B': <class 'gluon.html.B'>, 'BEAUTIFY': <class 'gluon.html.BEAUTIFY'>, 'BODY': <class 'gluon.html.BODY'>, 'BR': <class 'gluon.html.BR'>, 'BUTTON': <class 'gluon.html.BUTTON'>, 'CAT': <class 'gluon.html.CAT'>, ...}"
p67
sS'ccode'
p68
S'<code object <module> at 0x4ed62b0, file "/var/w.../views/default/estudiantesDetalles.html", line 1>'
p69
ssS'lnum'
p70
I224
sS'lines'
p71
(dp72
I224
S'        exec ccode in environment'
p73
sI225
S'    except HTTP:'
p74
sI226
S'        raise'
p75
sI227
S'    except RestrictedError:'
p76
sI228
S'        # do not encapsulate (obfuscate) the original RestrictedError'
p77
sI219
S'    try:'
p78
sI220
S'        if isinstance(code, types.CodeType):'
p79
sI221
S'            ccode = code'
p80
sI222
S'        else:'
p81
sI223
S'            ccode = compile2(code, layer)'
p82
ssS'call'
p83
S'(code=r"response.write(\'<!--{% load staticfiles %}-->\\n<...iv>\\n</div>\\n</footer>\\n</body>\\n\', escape=False)", environment={\'A\': <class \'gluon.html.A\'>, \'ANY_OF\': <class \'gluon.validators.ANY_OF\'>, \'ASSIGNJS\': <function ASSIGNJS>, \'Auth\': <class \'gluon.tools.Auth\'>, \'B\': <class \'gluon.html.B\'>, \'BEAUTIFY\': <class \'gluon.html.BEAUTIFY\'>, \'BODY\': <class \'gluon.html.BODY\'>, \'BR\': <class \'gluon.html.BR\'>, \'BUTTON\': <class \'gluon.html.BUTTON\'>, \'CAT\': <class \'gluon.html.CAT\'>, ...}, layer=\'/var/www/web2py/applications/SIGESC/views/default/estudiantesDetalles.html\')'
p84
sS'func'
p85
S'restricted'
p86
sa(dp87
g62
S'/var/www/web2py/applications/SIGESC/views/default/estudiantesDetalles.html'
p88
sg64
(dp89
S'div'
p90
S'undefined'
p91
sS'builtinid'
p92
S'<built-in function id>'
p93
ssg70
I68
sg71
(dp94
I64
S"    't_estudiante.modified_by':'Modificado por' }))"
p95
sI65
S"    response.write('\\n                  </tr>\\n                  ', escape=False)"
p96
sI66
S'    pass'
p97
sI67
S'response.write(\'\\n                </tbody>\\n            </table>\\n        </div>\\n    \\n        <div class="col-md-5">\\n            \', escape=False)'
p98
sI68
S"response.write(SQLTABLE(rows,headers={'t_estudiante.f_carrera':'Carrera'}))"
p99
sI69
S"response.write('\\n        </div>\\n    </div>\\n\\t', escape=False)"
p100
sI70
S'pass'
p101
sI71
S"response.write('\\n', escape=False)"
p102
sI72
S'response.write(\'\\n\\t</div>\\n\\t\\n\\t\\n<footer style="margin-top: 5%">\\n<div align="center">\\n\\t<div>\\n\\t\\t<div>\\n\\t\\t\\t<div>\\n\\t\\t\\t\\t<table align="center" border="0" cellpadding="1" cellspacing="1"><tbody><tr><td valign="bottom" width="95">\\n\\t\\t\\t\\t<a href="http://www.usb.ve"><img alt="" src="http://cfgc.dex.usb.ve/sites/default/files/cebolla_70_45.jpg"></a></td>\\n\\t\\t\\t\\t<td valign="bottom">\\n\\t\\t\\t\\t<a href="http://www.usb.ve/estudios/calendario.html" target="_blank">Calendario </a>|<a href="http://www.usb.ve/telefonico/telefonico.php?tipo=personal" target="_blank"> Directorio USB </a>|<a href="https://asignaturas.usb.ve/" target="_blank"> Aula Virtual USB</a> |<a href="https://webmail.usb.ve/" target="_blank"> Webmail</a>|<a href="http://www.usb.ve/buscador.php" target="_blank"> Buscador</a> |<br>\\n\\t\\t\\t\\tSartenejas, Baruta, Edo. Miranda - Apartado 89000 - Cable Unibolivar - Caracas Venezuela. Telefono +58 0212-9063111<br>\\n\\t\\t\\t\\tDisenada y desarrollada por la Direccion de Servicios Multimedia <a href="mailto:webmaster@usb.ve">webmaster@usb.ve</a></td>\\n\\t\\t\\t\\t</tr></tbody></table><p>\\n\\t\\t\\t\\t&nbsp;</p>\\n\\t\\t\\t</div>\\n\\t\\t</div>\\n\\t</div>\\n</div>\\n</footer>\\n</body>\\n\', escape=False)'
p103
sI59
S"    't_estudiante.f_direccion':'Direccion',"
p104
sI60
S"    't_estudiante.is_active':'Esta activo',"
p105
sI61
S"    't_estudiante.created_on':'Fecha de creacion',"
p106
sI62
S"    't_estudiante.created_by':'Creado por',"
p107
sI63
S"    't_estudiante.modified_on':'Fecha de modificacion',"
p108
ssg83
S'()'
p109
sg85
S'<module>'
p110
sa(dp111
g62
S'/var/www/web2py/gluon/sqlhtml.py'
p112
sg64
(dp113
S'builtinisinstance'
p114
S'<built-in function isinstance>'
p115
sS'colname'
p116
S"'t_estudiante.id'"
p117
sS'builtindict'
p118
S"<type 'dict'>"
p119
sS'headers'
p120
S"{'t_estudiante.f_carrera': 'Carrera'}"
p121
ssg70
I3208
sg71
(dp122
I3203
S"                                    r, headers[colname]['truncate'])"
p123
sI3204
S'                    elif not truncate is None:'
p124
sI3205
S'                        r = truncate_string(r, truncate)'
p125
sI3206
S'                attrcol = dict()  # new implement dict'
p126
sI3207
S'                if headers != {}:'
p127
sI3208
S'                    if isinstance(headers[colname], dict):'
p128
sI3209
S"                        colclass = headers[colname]['class']"
p129
sI3210
S"                        if headers[colname]['selected']:"
p130
sI3211
S'                            colclass = str(headers[colname]'
p131
sI3212
S'                                           [\'class\'] + " colselected").strip()'
p132
ssg83
S"(self=<gluon.sqlhtml.SQLTABLE object>, sqlrows=<Rows (1)>, linkto=None, upload=None, orderby=None, headers={'t_estudiante.f_carrera': 'Carrera'}, truncate=16, columns=['t_estudiante.id', 't_estudiante.f_usbid', 't_estudiante.f_nombre', 't_estudiante.f_apellido', 't_estudiante.f_cedula', 't_estudiante.f_carrera', 't_estudiante.f_sede', 't_estudiante.f_email', 't_estudiante.f_sexo', 't_estudiante.f_telefono', 't_estudiante.f_direccion', 't_estudiante.is_active', 't_estudiante.created_on', 't_estudiante.created_by', 't_estudiante.modified_on', 't_estudiante.modified_by'], th_link='', extracolumns=None, selectid=None, renderstyle=False, cid=None, colgroup=False, **attributes={})"
p133
sg85
g50
sasS'pyver'
p134
S'Python 2.7.3: /usr/bin/python (prefix: /usr)'
p135
sS'session'
p136
g57
(S's\x1a\x00\x00\x00<div><table></table></div>'
tRp137
sS'etype'
p138
S"<type 'exceptions.KeyError'>"
p139
sS'date'
p140
S'Wed Feb 25 17:17:56 2015'
p141
sS'response'
p142
g57
(S'sf(\x00\x00<div><table><tr><td style="font-weight:bold;vertical-align:top;">body</td><td style="vertical-align:top;">:</td><td><div>&lt;cStringIO.StringO object at 0x3b4cd18&gt;</div></td></tr><tr><td style="font-weight:bold;vertical-align:top;">cookies</td><td style="vertical-align:top;">:</td><td><div><table><tr><td style="font-weight:bold;vertical-align:top;">session_id_sigesc</td><td style="vertical-align:top;">:</td><td><div>190.72.122.116-7e6bb409-3cbb-41d1-993d-8205c5bf3ecc<table><tr><td style="font-weight:bold;vertical-align:top;">comment</td><td style="vertical-align:top;">:</td><td><div></div></td></tr><tr><td style="font-weight:bold;vertical-align:top;">domain</td><td style="vertical-align:top;">:</td><td><div></div></td></tr><tr><td style="font-weight:bold;vertical-align:top;">expires</td><td style="vertical-align:top;">:</td><td><div></div></td></tr><tr><td style="font-weight:bold;vertical-align:top;">httponly</td><td style="vertical-align:top;">:</td><td><div></div></td></tr><tr><td style="font-weight:bold;vertical-align:top;">max-age</td><td style="vertical-align:top;">:</td><td><div></div></td></tr><tr><td style="font-weight:bold;vertical-align:top;">path</td><td style="vertical-align:top;">:</td><td><div>/</div></td></tr><tr><td style="font-weight:bold;vertical-align:top;">secure</td><td style="vertical-align:top;">:</td><td><div></div></td></tr><tr><td style="font-weight:bold;vertical-align:top;">version</td><td style="vertical-align:top;">:</td><td><div></div></td></tr></table></div></td></tr></table></div></td></tr><tr><td style="font-weight:bold;vertical-align:top;">delimiters</td><td style="vertical-align:top;">:</td><td><div><table><tr><td><div>{{</div></td></tr><tr><td><div>}}</div></td></tr></table></div></td></tr><tr><td style="font-weight:bold;vertical-align:top;">files</td><td style="vertical-align:top;">:</td><td><div><table></table></div></td></tr><tr><td style="font-weight:bold;vertical-align:top;">flash</td><td style="vertical-align:top;">:</td><td><div></div></td></tr><tr><td style="font-weight:bold;vertical-align:top;">form_label_separator</td><td style="vertical-align:top;">:</td><td><div>: </div></td></tr><tr><td style="font-weight:bold;vertical-align:top;">formstyle</td><td style="vertical-align:top;">:</td><td><div>table3cols</div></td></tr><tr><td style="font-weight:bold;vertical-align:top;">generic_patterns</td><td style="vertical-align:top;">:</td><td><div><table></table></div></td></tr><tr><td style="font-weight:bold;vertical-align:top;">headers</td><td style="vertical-align:top;">:</td><td><div><table><tr><td style="font-weight:bold;vertical-align:top;">X-Powered-By</td><td style="vertical-align:top;">:</td><td><div>web2py</div></td></tr></table></div></td></tr><tr><td style="font-weight:bold;vertical-align:top;">menu</td><td style="vertical-align:top;">:</td><td><div><table><tr><td><div><table><tr><td><div>\xc3\x8dndice</div></td></tr><tr><td><div>False</div></td></tr><tr><td><div>/SIGESC/default/index</div></td></tr><tr><td><div><table></table></div></td></tr></table></div></td></tr><tr><td><div><table><tr><td><div>Estado</div></td></tr><tr><td><div>False</div></td></tr><tr><td><div>/SIGESC/default/estado_manage</div></td></tr><tr><td><div><table></table></div></td></tr></table></div></td></tr><tr><td><div><table><tr><td><div>Sede</div></td></tr><tr><td><div>False</div></td></tr><tr><td><div>/SIGESC/default/sede_manage</div></td></tr><tr><td><div><table></table></div></td></tr></table></div></td></tr><tr><td><div><table><tr><td><div>Comunidad</div></td></tr><tr><td><div>False</div></td></tr><tr><td><div>/SIGESC/default/comunidad_manage</div></td></tr><tr><td><div><table></table></div></td></tr></table></div></td></tr><tr><td><div><table><tr><td><div>Area</div></td></tr><tr><td><div>False</div></td></tr><tr><td><div>/SIGESC/default/area_manage</div></td></tr><tr><td><div><table></table></div></td></tr></table></div></td></tr><tr><td><div><table><tr><td><div>Sexo</div></td></tr><tr><td><div>False</div></td></tr><tr><td><div>/SIGESC/default/sexo_manage</div></td></tr><tr><td><div><table></table></div></td></tr></table></div></td></tr><tr><td><div><table><tr><td><div>Estudiante</div></td></tr><tr><td><div>False</div></td></tr><tr><td><div>/SIGESC/default/estudiante_manage</div></td></tr><tr><td><div><table></table></div></td></tr></table></div></td></tr><tr><td><div><table><tr><td><div>Proponente</div></td></tr><tr><td><div>False</div></td></tr><tr><td><div>/SIGESC/default/proponente_manage</div></td></tr><tr><td><div><table></table></div></td></tr></table></div></td></tr><tr><td><div><table><tr><td><div>Tutor</div></td></tr><tr><td><div>False</div></td></tr><tr><td><div>/SIGESC/default/tutor_manage</div></td></tr><tr><td><div><table></table></div></td></tr></table></div></td></tr><tr><td><div><table><tr><td><div>Proyecto</div></td></tr><tr><td><div>False</div></td></tr><tr><td><div>/SIGESC/default/proyecto_manage</div></td></tr><tr><td><div><table></table></div></td></tr></table></div></td></tr><tr><td><div><table><tr><td><div>Condicion</div></td></tr><tr><td><div>False</div></td></tr><tr><td><div>/SIGESC/default/condicion_manage</div></td></tr><tr><td><div><table></table></div></td></tr></table></div></td></tr><tr><td><div><table><tr><td><div>Caracterisicas</div></td></tr><tr><td><div>False</div></td></tr><tr><td><div>/SIGESC/default/caracterisicas_manage</div></td></tr><tr><td><div><table></table></div></td></tr></table></div></td></tr><tr><td><div><table><tr><td><div>Cursa</div></td></tr><tr><td><div>False</div></td></tr><tr><td><div>/SIGESC/default/cursa_manage</div></td></tr><tr><td><div><table></table></div></td></tr></table></div></td></tr><tr><td><div><table><tr><td><div>Carrera</div></td></tr><tr><td><div>False</div></td></tr><tr><td><div>/SIGESC/default/carrera_manage</div></td></tr><tr><td><div><table></table></div></td></tr></table></div></td></tr><tr><td><div><table><tr><td><div>Tipoprop</div></td></tr><tr><td><div>False</div></td></tr><tr><td><div>/SIGESC/default/tipoprop_manage</div></td></tr><tr><td><div><table></table></div></td></tr></table></div></td></tr><tr><td><div><table><tr><td><div>Relacionestproy</div></td></tr><tr><td><div>False</div></td></tr><tr><td><div>/SIGESC/default/relacionestproy_manage</div></td></tr><tr><td><div><table></table></div></td></tr></table></div></td></tr></table></div></td></tr><tr><td style="font-weight:bold;vertical-align:top;">meta</td><td style="vertical-align:top;">:</td><td><div><table><tr><td style="font-weight:bold;vertical-align:top;">author</td><td style="vertical-align:top;">:</td><td><div>Roraima Tech &lt;you@example.com&gt;</div></td></tr><tr><td style="font-weight:bold;vertical-align:top;">description</td><td style="vertical-align:top;">:</td><td><div></div></td></tr><tr><td style="font-weight:bold;vertical-align:top;">keywords</td><td style="vertical-align:top;">:</td><td><div></div></td></tr></table></div></td></tr><tr><td style="font-weight:bold;vertical-align:top;">models_to_run</td><td style="vertical-align:top;">:</td><td><div><table><tr><td><div>^\\w+\\.py$</div></td></tr><tr><td><div>^default/\\w+\\.py$</div></td></tr><tr><td><div>^default/estudiantesDetalles/\\w+\\.py$</div></td></tr></table></div></td></tr><tr><td style="font-weight:bold;vertical-align:top;">postprocessing</td><td style="vertical-align:top;">:</td><td><div><table></table></div></td></tr><tr><td style="font-weight:bold;vertical-align:top;">session_client</td><td style="vertical-align:top;">:</td><td><div>190.72.122.116</div></td></tr><tr><td style="font-weight:bold;vertical-align:top;">session_cookie_compression_level</td><td style="vertical-align:top;">:</td><td><div>None</div></td></tr><tr><td style="font-weight:bold;vertical-align:top;">session_cookie_expires</td><td style="vertical-align:top;">:</td><td><div>None</div></td></tr><tr><td style="font-weight:bold;vertical-align:top;">session_cookie_key</td><td style="vertical-align:top;">:</td><td><div>None</div></td></tr><tr><td style="font-weight:bold;vertical-align:top;">session_data_name</td><td style="vertical-align:top;">:</td><td><div>session_data_sigesc</div></td></tr><tr><td style="font-weight:bold;vertical-align:top;">session_file</td><td style="vertical-align:top;">:</td><td><div>&lt;open file &#x27;/var/www/web2py/applications/SIGESC/sessions/12c/0f4/190.72.122.116-7e6bb409-3cbb-41d1-993d-8205c5bf3ecc&#x27;, mode &#x27;rb+&#x27; at 0x30f5e40&gt;</div></td></tr><tr><td style="font-weight:bold;vertical-align:top;">session_filename</td><td style="vertical-align:top;">:</td><td><div>/var/www/web2py/applications/SIGESC/sessions/190.72.122.116-7e6bb409-3cbb-41d1-993d-8205c5bf3ecc</div></td></tr><tr><td style="font-weight:bold;vertical-align:top;">session_hash</td><td style="vertical-align:top;">:</td><td><div>cf49b6dccd48d5de1c632c9856a3a0f2</div></td></tr><tr><td style="font-weight:bold;vertical-align:top;">session_id</td><td style="vertical-align:top;">:</td><td><div>190.72.122.116-7e6bb409-3cbb-41d1-993d-8205c5bf3ecc</div></td></tr><tr><td style="font-weight:bold;vertical-align:top;">session_id_name</td><td style="vertical-align:top;">:</td><td><div>session_id_sigesc</div></td></tr><tr><td style="font-weight:bold;vertical-align:top;">session_locked</td><td style="vertical-align:top;">:</td><td><div>True</div></td></tr><tr><td style="font-weight:bold;vertical-align:top;">session_masterapp</td><td style="vertical-align:top;">:</td><td><div>SIGESC</div></td></tr><tr><td style="font-weight:bold;vertical-align:top;">session_new</td><td style="vertical-align:top;">:</td><td><div>False</div></td></tr><tr><td style="font-weight:bold;vertical-align:top;">session_storage_type</td><td style="vertical-align:top;">:</td><td><div>file</div></td></tr><tr><td style="font-weight:bold;vertical-align:top;">status</td><td style="vertical-align:top;">:</td><td><div>200</div></td></tr><tr><td style="font-weight:bold;vertical-align:top;">subtitle</td><td style="vertical-align:top;">:</td><td><div>Sistema de Gestion del Servicio Comunitario</div></td></tr><tr><td style="font-weight:bold;vertical-align:top;">title</td><td style="vertical-align:top;">:</td><td><div>SIGESC</div></td></tr><tr><td style="font-weight:bold;vertical-align:top;">view</td><td style="vertical-align:top;">:</td><td><div>default/estudiantesDetalles.html</div></td></tr></table></div>'
tRp143
sS'locals'
p144
(dp145
S'extracolumns'
p146
S'None'
p147
sS'matched_column_field'
p148
S'<_sre.SRE_Match object>'
p149
sS'renderstyle'
p150
S'False'
p151
sS'th_link'
p152
S"''"
p153
sS'sqlrows'
p154
S'<Rows (1)>'
p155
sS'row'
p156
S'[]'
p157
sS'r_old'
p158
S'3L'
p159
sS'self'
p160
S'<gluon.sqlhtml.SQLTABLE object>'
p161
sS'tablename'
p162
S"'t_estudiante'"
p163
sS'tbody'
p164
S'[]'
p165
sS'field'
p166
S'<gluon.dal.objects.Field object>'
p167
sS'rc'
p168
S'0'
sS'_class'
p169
S"'w2p_odd odd'"
p170
sS'columns'
p171
S"['t_estudiante.id', 't_estudiante.f_usbid', 't_estudiante.f_nombre', 't_estudiante.f_apellido', 't_estudiante.f_cedula', 't_estudiante.f_carrera', 't_estudiante.f_sede', 't_estudiante.f_email', 't_estudiante.f_sexo', 't_estudiante.f_telefono', 't_estudiante.f_direccion', 't_estudiante.is_active', 't_estudiante.created_on', 't_estudiante.created_by', 't_estudiante.modified_on', 't_estudiante.modified_by']"
p172
sS'truncate'
p173
S'16'
p174
sS'colname'
p175
S"'t_estudiante.id'"
p176
sS'selectid'
p177
S'None'
p178
sS'headers'
p179
S"{'t_estudiante.f_carrera': 'Carrera'}"
p180
sS'orderby'
p181
S'None'
p182
sS'c'
S"'t_estudiante.modified_by'"
p183
sS'REGEX_TABLE_DOT_FIELD'
p184
S'<_sre.SRE_Pattern object>'
p185
sS'linkto'
p186
S'None'
p187
sS'attrcol'
p188
g45
sS'cid'
p189
S'None'
p190
sS'colgroup'
p191
g151
sS'upload'
p192
S'None'
p193
sS'record'
p194
S"<Row {'f_email': 'daniel.zeait@gmail.com', 'modi...elefono': '04122580409', 'f_cedula': '19294080'}>"
p195
sS'r'
S'3L'
p196
sS'fieldname'
p197
S"'id'"
p198
sS'components'
p199
S'[<gluon.html.THEAD object>]'
p200
sS'attributes'
p201
g45
sssS'traceback'
p202
S'Traceback (most recent call last):\n  File "/var/www/web2py/gluon/restricted.py", line 224, in restricted\n    exec ccode in environment\n  File "/var/www/web2py/applications/SIGESC/views/default/estudiantesDetalles.html", line 68, in <module>\n    <div id="navbar" class="navbar-collapse collapse">\n  File "/var/www/web2py/gluon/sqlhtml.py", line 3208, in __init__\n    if isinstance(headers[colname], dict):\nKeyError: \'t_estudiante.id\'\n'
p203
s.